Archive member included because of file (symbol)

c:/devkitPro/PAlib/lib\libpa9.a(PA_BgTiles.o)
                              main.o (PA_BgInfo)
c:/devkitPro/PAlib/lib\libpa9.a(PA.o)
                              main.o (PA_SetBrightness)
c:/devkitPro/PAlib/lib\libpa9.a(PA_Draw8bit.o)
                              main.o (PA_Init8bitBg)
c:/devkitPro/PAlib/lib\libpa9.a(PA_Draw.o)
                              main.o (PA_DrawBg)
c:/devkitPro/PAlib/lib\libpa9.a(PA_Error.o)
                              c:/devkitPro/PAlib/lib\libpa9.a(PA_BgTiles.o) (PA_Error)
c:/devkitPro/PAlib/lib\libpa9.a(PA_Gif.o)
                              main.o (DecodeGif)
c:/devkitPro/PAlib/lib\libpa9.a(PA_Inits.o)
                              c:/devkitPro/PAlib/lib\libpa9.a(PA_Error.o) (PA_Init2D)
c:/devkitPro/PAlib/lib\libpa9.a(PA_Interrupt.o)
                              c:/devkitPro/PAlib/lib\libpa9.a(PA_Inits.o) (PA_VBLCountersReset)
c:/devkitPro/PAlib/lib\libpa9.a(PA_Keys.o)
                              c:/devkitPro/PAlib/lib\libpa9.a(PA_Interrupt.o) (PA_UpdateStylus)
c:/devkitPro/PAlib/lib\libpa9.a(PA_Math.o)
                              c:/devkitPro/PAlib/lib\libpa9.a(PA_Inits.o) (RandomValue)
c:/devkitPro/PAlib/lib\libpa9.a(PA_NewBg.o)
                              main.o (PA_LoadText)
c:/devkitPro/PAlib/lib\libpa9.a(PA_Palette.o)
                              main.o (PA_LoadSpriteExtPal)
c:/devkitPro/PAlib/lib\libpa9.a(PA_Reco.o)
                              c:/devkitPro/PAlib/lib\libpa9.a(PA_Inits.o) (PA_UseGraffiti)
c:/devkitPro/PAlib/lib\libpa9.a(PA_RTC.o)
                              c:/devkitPro/PAlib/lib\libpa9.a(PA_Inits.o) (PA_UpdateUserInfo)
c:/devkitPro/PAlib/lib\libpa9.a(PA_SpriteAnim.o)
                              main.o (PA_StartSpriteAnimEx)
c:/devkitPro/PAlib/lib\libpa9.a(PA_Sprite.o)
                              main.o (used_mem)
c:/devkitPro/PAlib/lib\libpa9.a(PA_Stuff.o)
                              c:/devkitPro/PAlib/lib\libpa9.a(PA_BgTiles.o) (PA_SetVideoMode)
c:/devkitPro/PAlib/lib\libpa9.a(PA_Text8bit.o)
                              c:/devkitPro/PAlib/lib\libpa9.a(PA_NewBg.o) (bit8_tiles)
c:/devkitPro/PAlib/lib\libpa9.a(PA_TextBits.o)
                              c:/devkitPro/PAlib/lib\libpa9.a(PA_Text8bit.o) (PA_LetterPos)
c:/devkitPro/PAlib/lib\libpa9.a(PA_Text.o)
                              c:/devkitPro/PAlib/lib\libpa9.a(PA_Error.o) (PA_OutputSimpleText)
c:/devkitPro/PAlib/lib\libpa9.a(dgif_lib.o)
                              c:/devkitPro/PAlib/lib\libpa9.a(PA_Gif.o) (DGifGetLine)
c:/devkitPro/PAlib/lib\libpa9.a(gifalloc.o)
                              c:/devkitPro/PAlib/lib\libpa9.a(dgif_lib.o) (FreeExtension)
c:/devkitPro/PAlib/lib\libpa9.a(gif_err.o)
                              c:/devkitPro/PAlib/lib\libpa9.a(dgif_lib.o) (_GifError)
c:/devkitPro/PAlib/lib\libpa9.a(PA_TiledFont.o)
                              c:/devkitPro/PAlib/lib\libpa9.a(PA_Text.o) (PA_TiledFont)
c:/devkitPro/PAlib/lib\libpa9.a(PA_BmpFont0.o)
                              c:/devkitPro/PAlib/lib\libpa9.a(PA_Inits.o) (PA_BmpFont0)
c:/devkitPro/PAlib/lib\libpa9.a(PA_BmpFont1.o)
                              c:/devkitPro/PAlib/lib\libpa9.a(PA_Inits.o) (PA_BmpFont1)
c:/devkitPro/PAlib/lib\libpa9.a(PA_BmpFont2.o)
                              c:/devkitPro/PAlib/lib\libpa9.a(PA_Inits.o) (PA_BmpFont2)
c:/devkitPro/PAlib/lib\libpa9.a(PA_BmpFont3.o)
                              c:/devkitPro/PAlib/lib\libpa9.a(PA_Inits.o) (PA_BmpFont3)
c:/devkitPro/PAlib/lib\libpa9.a(PA_BmpFont4.o)
                              c:/devkitPro/PAlib/lib\libpa9.a(PA_Inits.o) (PA_BmpFont4)
c:/devkitPro/PAlib/lib\libpa9.a(PA_TiledFont_Map.bin.o)
                              c:/devkitPro/PAlib/lib\libpa9.a(PA_Inits.o) (PA_TiledFont_Map)
c:/devkitPro/PAlib/lib\libpa9.a(PA_TiledFont_Pal.bin.o)
                              c:/devkitPro/PAlib/lib\libpa9.a(PA_Inits.o) (PA_TiledFont_Pal)
c:/devkitPro/PAlib/lib\libpa9.a(PA_TiledFont_Tiles.bin.o)
                              c:/devkitPro/PAlib/lib\libpa9.a(PA_Inits.o) (PA_TiledFont_Tiles)
c:/devkitPro/PAlib/lib\libpa9.a(PA_BmpFont0_Map.bin.o)
                              c:/devkitPro/PAlib/lib\libpa9.a(PA_TextBits.o) (PA_BmpFont0_Map)
c:/devkitPro/PAlib/lib\libpa9.a(PA_BmpFont0_Sizes.bin.o)
                              c:/devkitPro/PAlib/lib\libpa9.a(PA_TextBits.o) (PA_BmpFont0_Sizes)
c:/devkitPro/PAlib/lib\libpa9.a(PA_BmpFont0_Tiles.bin.o)
                              c:/devkitPro/PAlib/lib\libpa9.a(PA_Inits.o) (PA_BmpFont0_Tiles_size)
c:/devkitPro/PAlib/lib\libpa9.a(PA_BmpFont1_Map.bin.o)
                              c:/devkitPro/PAlib/lib\libpa9.a(PA_TextBits.o) (PA_BmpFont1_Map)
c:/devkitPro/PAlib/lib\libpa9.a(PA_BmpFont1_Sizes.bin.o)
                              c:/devkitPro/PAlib/lib\libpa9.a(PA_TextBits.o) (PA_BmpFont1_Sizes)
c:/devkitPro/PAlib/lib\libpa9.a(PA_BmpFont1_Tiles.bin.o)
                              c:/devkitPro/PAlib/lib\libpa9.a(PA_Inits.o) (PA_BmpFont1_Tiles_size)
c:/devkitPro/PAlib/lib\libpa9.a(PA_BmpFont2_Map.bin.o)
                              c:/devkitPro/PAlib/lib\libpa9.a(PA_TextBits.o) (PA_BmpFont2_Map)
c:/devkitPro/PAlib/lib\libpa9.a(PA_BmpFont2_Sizes.bin.o)
                              c:/devkitPro/PAlib/lib\libpa9.a(PA_TextBits.o) (PA_BmpFont2_Sizes)
c:/devkitPro/PAlib/lib\libpa9.a(PA_BmpFont2_Tiles.bin.o)
                              c:/devkitPro/PAlib/lib\libpa9.a(PA_Inits.o) (PA_BmpFont2_Tiles_size)
c:/devkitPro/PAlib/lib\libpa9.a(PA_BmpFont3_Map.bin.o)
                              c:/devkitPro/PAlib/lib\libpa9.a(PA_TextBits.o) (PA_BmpFont3_Map)
c:/devkitPro/PAlib/lib\libpa9.a(PA_BmpFont3_Sizes.bin.o)
                              c:/devkitPro/PAlib/lib\libpa9.a(PA_TextBits.o) (PA_BmpFont3_Sizes)
c:/devkitPro/PAlib/lib\libpa9.a(PA_BmpFont3_Tiles.bin.o)
                              c:/devkitPro/PAlib/lib\libpa9.a(PA_Inits.o) (PA_BmpFont3_Tiles_size)
c:/devkitPro/PAlib/lib\libpa9.a(PA_BmpFont4_Map.bin.o)
                              c:/devkitPro/PAlib/lib\libpa9.a(PA_TextBits.o) (PA_BmpFont4_Map)
c:/devkitPro/PAlib/lib\libpa9.a(PA_BmpFont4_Sizes.bin.o)
                              c:/devkitPro/PAlib/lib\libpa9.a(PA_TextBits.o) (PA_BmpFont4_Sizes)
c:/devkitPro/PAlib/lib\libpa9.a(PA_BmpFont4_Tiles.bin.o)
                              c:/devkitPro/PAlib/lib\libpa9.a(PA_Inits.o) (PA_BmpFont4_Tiles_size)
c:/devkitPro/PAlib/lib\libpa9.a(PA_16c.o)
                              c:/devkitPro/PAlib/lib\libpa9.a(PA_NewBg.o) (c16_tiles)
c:/devkitPro/PAlib/lib\libpa9.a(PA_BgEasy.o)
                              c:/devkitPro/PAlib/lib\libpa9.a(PA_NewBg.o) (PA_StoreEasyBgInfos)
c:/devkitPro/PAlib/lib\libpa9.a(PA_BgLargeMap.o)
                              c:/devkitPro/PAlib/lib\libpa9.a(PA_BgEasy.o) (PA_InfLargeScrollXN)
c:/devkitPro/PAlib/lib\libpa9.a(PA_BgRot.o)
                              c:/devkitPro/PAlib/lib\libpa9.a(PA_NewBg.o) (PA_LoadRotBgMap)
c:/devkitPro/PAlib/lib\libpa9.a(PA_Fifo.o)
                              c:/devkitPro/PAlib/lib\libpa9.a(PA_Inits.o) (PA_InitFifo)
c:/devkitPro/PAlib/lib\libpa9.a(PA_Keyboard.o)
                              c:/devkitPro/PAlib/lib\libpa9.a(PA_NewBg.o) (PA_Keyboard_Struct)
c:/devkitPro/PAlib/lib\libpa9.a(PA_PaletteEx.o)
                              c:/devkitPro/PAlib/lib\libpa9.a(PA_Text.o) (PA_SetBgPalNCol)
c:/devkitPro/PAlib/lib\libpa9.a(keyboard.map.o)
                              c:/devkitPro/PAlib/lib\libpa9.a(PA_Keyboard.o) (keyboard_Map)
c:/devkitPro/PAlib/lib\libpa9.a(keyboard.pal.o)
                              c:/devkitPro/PAlib/lib\libpa9.a(PA_Keyboard.o) (keyboard_Palette)
c:/devkitPro/PAlib/lib\libpa9.a(keyboard.raw.o)
                              c:/devkitPro/PAlib/lib\libpa9.a(PA_Keyboard.o) (keyboard_Tiles)
c:/devkitPro/libnds/lib\libfat.a(libfat.o)
                              main.o (fatInitDefault)
c:/devkitPro/libnds/lib\libfat.a(partition.o)
                              c:/devkitPro/libnds/lib\libfat.a(libfat.o) (_FAT_partition_destructor)
c:/devkitPro/libnds/lib\libfat.a(cache.o)
                              c:/devkitPro/libnds/lib\libfat.a(partition.o) (_FAT_cache_destructor)
c:/devkitPro/libnds/lib\libfat.a(directory.o)
                              c:/devkitPro/libnds/lib\libfat.a(libfat.o) (_FAT_directory_getVolumeLabel)
c:/devkitPro/libnds/lib\libfat.a(disc.o)
                              c:/devkitPro/libnds/lib\libfat.a(libfat.o) (_FAT_disc_interfaces)
c:/devkitPro/libnds/lib\libfat.a(fatdir.o)
                              c:/devkitPro/libnds/lib\libfat.a(libfat.o) (_FAT_link_r)
c:/devkitPro/libnds/lib\libfat.a(fatfile.o)
                              c:/devkitPro/libnds/lib\libfat.a(libfat.o) (_FAT_ftruncate_r)
c:/devkitPro/libnds/lib\libfat.a(file_allocation_table.o)
                              c:/devkitPro/libnds/lib\libfat.a(directory.o) (_FAT_fat_nextCluster)
c:/devkitPro/libnds/lib\libfat.a(filetime.o)
                              c:/devkitPro/libnds/lib\libfat.a(directory.o) (_FAT_filetime_to_time_t)
c:/devkitPro/libnds/lib\libnds9.a(gurumeditation.o)
                              main.o (defaultExceptionHandler)
c:/devkitPro/libnds/lib\libnds9.a(keys.o)
                              c:/devkitPro/PAlib/lib\libpa9.a(PA_Keys.o) (scanKeys)
c:/devkitPro/libnds/lib\libnds9.a(system.o)
                              c:/devkitPro/PAlib/lib\libpa9.a(PA_Inits.o) (powerOn)
c:/devkitPro/libnds/lib\libnds9.a(touch.o)
                              c:/devkitPro/PAlib/lib\libpa9.a(PA_Keys.o) (touchRead)
c:/devkitPro/libnds/lib\libnds9.a(video.o)
                              c:/devkitPro/PAlib/lib\libpa9.a(PA_Inits.o) (vramSetMainBanks)
c:/devkitPro/libnds/lib\libnds9.a(dldi.o)
                              c:/devkitPro/libnds/lib\libfat.a(disc.o) (dldiGetInternal)
c:/devkitPro/libnds/lib\libnds9.a(initSystem.o)
                              c:/devkitpro/devkitarm/bin/../lib/gcc/arm-eabi/4.4.3/../../../../arm-eabi/lib/thumb/ds_arm9_crt0.o (initSystem)
c:/devkitPro/libnds/lib\libnds9.a(fifosystem.o)
                              c:/devkitPro/PAlib/lib\libpa9.a(PA.o) (fifoSendValue32)
c:/devkitPro/libnds/lib\libnds9.a(interrupts.o)
                              c:/devkitPro/PAlib/lib\libpa9.a(PA_BgTiles.o) (irqSet)
c:/devkitPro/libnds/lib\libnds9.a(libnds_exit.o)
                              c:/devkitpro/devkitarm/bin/../lib/gcc/arm-eabi/4.4.3/../../../../arm-eabi/lib/thumb/ds_arm9_crt0.o (__libnds_exit)
c:/devkitPro/libnds/lib\libnds9.a(dcache.o)
                              c:/devkitPro/PAlib/lib\libpa9.a(PA_BgTiles.o) (DC_FlushRange)
c:/devkitPro/libnds/lib\libnds9.a(exceptionHandler.o)
                              c:/devkitPro/libnds/lib\libnds9.a(gurumeditation.o) (getCPSR)
c:/devkitPro/libnds/lib\libnds9.a(dldi_stub.o)
                              c:/devkitPro/libnds/lib\libnds9.a(dldi.o) (_io_dldi_stub)
c:/devkitPro/libnds/lib\libnds9.a(mpu_setup.o)
                              c:/devkitpro/devkitarm/bin/../lib/gcc/arm-eabi/4.4.3/../../../../arm-eabi/lib/thumb/ds_arm9_crt0.o (__libnds_mpu_setup)
c:/devkitPro/libnds/lib\libnds9.a(biosCalls.o)
                              c:/devkitPro/PAlib/lib\libpa9.a(PA.o) (swiDelay)
c:/devkitPro/libnds/lib\libnds9.a(interruptDispatcher.o)
                              c:/devkitPro/libnds/lib\libnds9.a(interrupts.o) (IntrMain)
c:/devkitPro/libnds/lib\libnds9.a(swiSoftReset.o)
                              c:/devkitPro/libnds/lib\libnds9.a(fifosystem.o) (swiSoftReset)
c:/devkitPro/libnds/lib\libnds9.a(console.o)
                              c:/devkitPro/libnds/lib\libnds9.a(gurumeditation.o) (consoleDemoInit)
c:/devkitPro/libnds/lib\libnds9.a(exceptions.o)
                              c:/devkitPro/libnds/lib\libnds9.a(gurumeditation.o) (setExceptionHandler)
c:/devkitPro/libnds/lib\libnds9.a(debugprint.o)
                              c:/devkitPro/libnds/lib\libnds9.a(console.o) (nocashMessage)
c:/devkitPro/libnds/lib\libnds9.a(default_font.bin.o)
                              c:/devkitPro/libnds/lib\libnds9.a(console.o) (default_font_bin)
c:/devkitPro/libnds/lib\libnds9.a(background.o)
                              c:/devkitPro/libnds/lib\libnds9.a(console.o) (bgState)
c:/devkitPro/libnds/lib\libnds9.a(trig.o)
                              c:/devkitPro/libnds/lib\libnds9.a(background.o) (sinLerp)
c:/devkitPro/libnds/lib\libdswifi9.a(sgIP_Hub.o)
                              ky_geturl.o (htons)
c:/devkitPro/libnds/lib\libdswifi9.a(sgIP_memblock.o)
                              c:/devkitPro/libnds/lib\libdswifi9.a(sgIP_Hub.o) (sgIP_memblock_exposeheader)
c:/devkitPro/libnds/lib\libdswifi9.a(sgIP_sockets.o)
                              ky_geturl.o (setsockopt)
c:/devkitPro/libnds/lib\libdswifi9.a(wifi_arm9.o)
                              c:/devkitPro/libnds/lib\libdswifi9.a(sgIP_sockets.o) (sgIP_IntrWaitEvent)
c:/devkitPro/libnds/lib\libdswifi9.a(spinlock.o)
                              c:/devkitPro/libnds/lib\libdswifi9.a(wifi_arm9.o) (SLasm_Acquire)
c:/devkitPro/libnds/lib\libdswifi9.a(sgIP.o)
                              c:/devkitPro/libnds/lib\libdswifi9.a(wifi_arm9.o) (sgIP_Timer)
c:/devkitPro/libnds/lib\libdswifi9.a(sgIP_ARP.o)
                              c:/devkitPro/libnds/lib\libdswifi9.a(sgIP.o) (sgIP_ARP_Init)
c:/devkitPro/libnds/lib\libdswifi9.a(sgIP_DHCP.o)
                              c:/devkitPro/libnds/lib\libdswifi9.a(wifi_arm9.o) (gethostname)
c:/devkitPro/libnds/lib\libdswifi9.a(sgIP_DNS.o)
                              c:/devkitPro/libnds/lib\libdswifi9.a(sgIP.o) (sgIP_DNS_Init)
c:/devkitPro/libnds/lib\libdswifi9.a(sgIP_IP.o)
                              c:/devkitPro/libnds/lib\libdswifi9.a(sgIP.o) (sgIP_IP_ReceivePacket)
c:/devkitPro/libnds/lib\libdswifi9.a(sgIP_TCP.o)
                              c:/devkitPro/libnds/lib\libdswifi9.a(sgIP.o) (sgIP_TCP_Init)
c:/devkitPro/libnds/lib\libdswifi9.a(sgIP_UDP.o)
                              c:/devkitPro/libnds/lib\libdswifi9.a(sgIP.o) (sgIP_UDP_Init)
c:/devkitPro/libnds/lib\libdswifi9.a(sgIP_ICMP.o)
                              c:/devkitPro/libnds/lib\libdswifi9.a(sgIP_IP.o) (sgIP_ICMP_ReceivePacket)
c:/devkitPro/libnds/lib\libmm9.a(mm_comms.o)
                              main.o (mmStart)
c:/devkitPro/libnds/lib\libmm9.a(mm_main9.o)
                              c:/devkitPro/libnds/lib\libmm9.a(mm_comms.o) (mmCallback)
c:/devkitPro/libnds/lib\libmm9.a(mm_memory.o)
                              main.o (mmLoad)
c:/devkitPro/libnds/lib\libmm9.a(mm_soundbank.o)
                              c:/devkitPro/libnds/lib\libmm9.a(mm_main9.o) (mmSoundBankInMemory)
c:/devkitPro/libnds/lib\libmm9.a(mm_flusher.o)
                              c:/devkitPro/libnds/lib\libmm9.a(mm_memory.o) (mmFlushBank)
c:/devkitpro/devkitarm/bin/../lib/gcc/arm-eabi/4.4.3/thumb\libgcc.a(_udivsi3.o)
                              c:/devkitPro/libnds/lib\libfat.a(partition.o) (__aeabi_uidiv)
c:/devkitpro/devkitarm/bin/../lib/gcc/arm-eabi/4.4.3/thumb\libgcc.a(_divsi3.o)
                              c:/devkitPro/PAlib/lib\libpa9.a(PA_Keys.o) (__aeabi_idiv)
c:/devkitpro/devkitarm/bin/../lib/gcc/arm-eabi/4.4.3/thumb\libgcc.a(_dvmd_tls.o)
                              c:/devkitpro/devkitarm/bin/../lib/gcc/arm-eabi/4.4.3/thumb\libgcc.a(_udivsi3.o) (__div0)
c:/devkitpro/devkitarm/bin/../lib/gcc/arm-eabi/4.4.3/thumb\libgcc.a(_arm_addsubdf3.o)
                              c:/devkitPro/PAlib/lib\libpa9.a(PA_Text.o) (__aeabi_dsub)
c:/devkitpro/devkitarm/bin/../lib/gcc/arm-eabi/4.4.3/thumb\libgcc.a(_arm_muldivdf3.o)
                              c:/devkitPro/PAlib/lib\libpa9.a(PA_Gif.o) (__aeabi_dmul)
c:/devkitpro/devkitarm/bin/../lib/gcc/arm-eabi/4.4.3/thumb\libgcc.a(_arm_cmpdf2.o)
                              c:/devkitPro/PAlib/lib\libpa9.a(PA_Text.o) (__aeabi_dcmplt)
c:/devkitpro/devkitarm/bin/../lib/gcc/arm-eabi/4.4.3/thumb\libgcc.a(_arm_fixdfsi.o)
                              c:/devkitPro/PAlib/lib\libpa9.a(PA_Text.o) (__aeabi_d2iz)
c:/devkitpro/devkitarm/bin/../lib/gcc/arm-eabi/4.4.3/thumb\libgcc.a(_arm_addsubsf3.o)
                              c:/devkitPro/PAlib/lib\libpa9.a(PA_Gif.o) (__aeabi_i2f)
c:/devkitpro/devkitarm/bin/../lib/gcc/arm-eabi/4.4.3/thumb\libgcc.a(_arm_muldivsf3.o)
                              c:/devkitPro/PAlib/lib\libpa9.a(PA_Gif.o) (__aeabi_fmul)
c:/devkitpro/devkitarm/bin/../lib/gcc/arm-eabi/4.4.3/thumb\libgcc.a(_muldi3.o)
                              c:/devkitPro/PAlib/lib\libpa9.a(PA_Math.o) (__aeabi_lmul)
c:/devkitpro/devkitarm/bin/../lib/gcc/arm-eabi/4.4.3/../../../../arm-eabi/lib/thumb\libg.a(lib_a-bsearch.o)
                              c:/devkitPro/libnds/lib\libnds9.a(trig.o) (bsearch)
c:/devkitpro/devkitarm/bin/../lib/gcc/arm-eabi/4.4.3/../../../../arm-eabi/lib/thumb\libg.a(lib_a-calloc.o)
                              c:/devkitPro/PAlib/lib\libpa9.a(gifalloc.o) (calloc)
c:/devkitpro/devkitarm/bin/../lib/gcc/arm-eabi/4.4.3/../../../../arm-eabi/lib/thumb\libg.a(lib_a-callocr.o)
                              c:/devkitpro/devkitarm/bin/../lib/gcc/arm-eabi/4.4.3/../../../../arm-eabi/lib/thumb\libg.a(lib_a-calloc.o) (_calloc_r)
c:/devkitpro/devkitarm/bin/../lib/gcc/arm-eabi/4.4.3/../../../../arm-eabi/lib/thumb\libg.a(lib_a-errno.o)
                              ky_geturl.o (__errno)
c:/devkitpro/devkitarm/bin/../lib/gcc/arm-eabi/4.4.3/../../../../arm-eabi/lib/thumb\libg.a(lib_a-fclose.o)
                              main.o (fclose)
c:/devkitpro/devkitarm/bin/../lib/gcc/arm-eabi/4.4.3/../../../../arm-eabi/lib/thumb\libg.a(lib_a-fflush.o)
                              c:/devkitpro/devkitarm/bin/../lib/gcc/arm-eabi/4.4.3/../../../../arm-eabi/lib/thumb\libg.a(lib_a-fclose.o) (_fflush_r)
c:/devkitpro/devkitarm/bin/../lib/gcc/arm-eabi/4.4.3/../../../../arm-eabi/lib/thumb\libg.a(lib_a-findfp.o)
                              c:/devkitpro/devkitarm/bin/../lib/gcc/arm-eabi/4.4.3/../../../../arm-eabi/lib/thumb\libg.a(lib_a-fclose.o) (__sfp_lock_acquire)
c:/devkitpro/devkitarm/bin/../lib/gcc/arm-eabi/4.4.3/../../../../arm-eabi/lib/thumb\libg.a(lib_a-fopen.o)
                              main.o (fopen)
c:/devkitpro/devkitarm/bin/../lib/gcc/arm-eabi/4.4.3/../../../../arm-eabi/lib/thumb\libg.a(lib_a-fprintf.o)
                              c:/devkitPro/PAlib/lib\libpa9.a(gif_err.o) (fprintf)
c:/devkitpro/devkitarm/bin/../lib/gcc/arm-eabi/4.4.3/../../../../arm-eabi/lib/thumb\libg.a(lib_a-fread.o)
                              main.o (fread)
c:/devkitpro/devkitarm/bin/../lib/gcc/arm-eabi/4.4.3/../../../../arm-eabi/lib/thumb\libg.a(lib_a-freer.o)
                              c:/devkitpro/devkitarm/bin/../lib/gcc/arm-eabi/4.4.3/../../../../arm-eabi/lib/thumb\libg.a(lib_a-fclose.o) (_free_r)
c:/devkitpro/devkitarm/bin/../lib/gcc/arm-eabi/4.4.3/../../../../arm-eabi/lib/thumb\libg.a(lib_a-fseek.o)
                              c:/devkitpro/devkitarm/bin/../lib/gcc/arm-eabi/4.4.3/../../../../arm-eabi/lib/thumb\libg.a(lib_a-fopen.o) (_fseek_r)
c:/devkitpro/devkitarm/bin/../lib/gcc/arm-eabi/4.4.3/../../../../arm-eabi/lib/thumb\libg.a(lib_a-ftell.o)
                              main.o (ftell)
c:/devkitpro/devkitarm/bin/../lib/gcc/arm-eabi/4.4.3/../../../../arm-eabi/lib/thumb\libg.a(lib_a-fwalk.o)
                              c:/devkitpro/devkitarm/bin/../lib/gcc/arm-eabi/4.4.3/../../../../arm-eabi/lib/thumb\libg.a(lib_a-fflush.o) (_fwalk_reent)
c:/devkitpro/devkitarm/bin/../lib/gcc/arm-eabi/4.4.3/../../../../arm-eabi/lib/thumb\libg.a(lib_a-fwrite.o)
                              main.o (fwrite)
c:/devkitpro/devkitarm/bin/../lib/gcc/arm-eabi/4.4.3/../../../../arm-eabi/lib/thumb\libg.a(lib_a-gmtime.o)
                              c:/devkitPro/PAlib/lib\libpa9.a(PA_RTC.o) (gmtime)
c:/devkitpro/devkitarm/bin/../lib/gcc/arm-eabi/4.4.3/../../../../arm-eabi/lib/thumb\libg.a(lib_a-gmtime_r.o)
                              c:/devkitpro/devkitarm/bin/../lib/gcc/arm-eabi/4.4.3/../../../../arm-eabi/lib/thumb\libg.a(lib_a-gmtime.o) (gmtime_r)
c:/devkitpro/devkitarm/bin/../lib/gcc/arm-eabi/4.4.3/../../../../arm-eabi/lib/thumb\libg.a(lib_a-impure.o)
                              c:/devkitPro/PAlib/lib\libpa9.a(gif_err.o) (_impure_ptr)
c:/devkitpro/devkitarm/bin/../lib/gcc/arm-eabi/4.4.3/../../../../arm-eabi/lib/thumb\libg.a(lib_a-init.o)
                              c:/devkitpro/devkitarm/bin/../lib/gcc/arm-eabi/4.4.3/../../../../arm-eabi/lib/thumb/ds_arm9_crt0.o (__libc_init_array)
c:/devkitpro/devkitarm/bin/../lib/gcc/arm-eabi/4.4.3/../../../../arm-eabi/lib/thumb\libg.a(lib_a-iprintf.o)
                              c:/devkitPro/libnds/lib\libnds9.a(gurumeditation.o) (iprintf)
c:/devkitpro/devkitarm/bin/../lib/gcc/arm-eabi/4.4.3/../../../../arm-eabi/lib/thumb\libg.a(lib_a-lcltime_r.o)
                              c:/devkitPro/libnds/lib\libfat.a(filetime.o) (localtime_r)
c:/devkitpro/devkitarm/bin/../lib/gcc/arm-eabi/4.4.3/../../../../arm-eabi/lib/thumb\libg.a(lib_a-locale.o)
                              c:/devkitPro/PAlib/lib\libpa9.a(PA_Inits.o) (setlocale)
c:/devkitpro/devkitarm/bin/../lib/gcc/arm-eabi/4.4.3/../../../../arm-eabi/lib/thumb\libg.a(lib_a-makebuf.o)
                              c:/devkitpro/devkitarm/bin/../lib/gcc/arm-eabi/4.4.3/../../../../arm-eabi/lib/thumb\libg.a(lib_a-fseek.o) (__smakebuf_r)
c:/devkitpro/devkitarm/bin/../lib/gcc/arm-eabi/4.4.3/../../../../arm-eabi/lib/thumb\libg.a(lib_a-malloc.o)
                              ky_geturl.o (free)
c:/devkitpro/devkitarm/bin/../lib/gcc/arm-eabi/4.4.3/../../../../arm-eabi/lib/thumb\libg.a(lib_a-mallocr.o)
                              c:/devkitpro/devkitarm/bin/../lib/gcc/arm-eabi/4.4.3/../../../../arm-eabi/lib/thumb\libg.a(lib_a-callocr.o) (_malloc_r)
c:/devkitpro/devkitarm/bin/../lib/gcc/arm-eabi/4.4.3/../../../../arm-eabi/lib/thumb\libg.a(lib_a-mbrtowc.o)
                              c:/devkitPro/libnds/lib\libfat.a(directory.o) (mbrtowc)
c:/devkitpro/devkitarm/bin/../lib/gcc/arm-eabi/4.4.3/../../../../arm-eabi/lib/thumb\libg.a(lib_a-mbsrtowcs.o)
                              c:/devkitPro/libnds/lib\libfat.a(directory.o) (mbsrtowcs)
c:/devkitpro/devkitarm/bin/../lib/gcc/arm-eabi/4.4.3/../../../../arm-eabi/lib/thumb\libg.a(lib_a-mbtowc_r.o)
                              c:/devkitpro/devkitarm/bin/../lib/gcc/arm-eabi/4.4.3/../../../../arm-eabi/lib/thumb\libg.a(lib_a-locale.o) (__ascii_mbtowc)
c:/devkitpro/devkitarm/bin/../lib/gcc/arm-eabi/4.4.3/../../../../arm-eabi/lib/thumb\libg.a(lib_a-memcmp.o)
                              c:/devkitPro/PAlib/lib\libpa9.a(gifalloc.o) (memcmp)
c:/devkitpro/devkitarm/bin/../lib/gcc/arm-eabi/4.4.3/../../../../arm-eabi/lib/thumb\libg.a(lib_a-memcpy.o)
                              ky_geturl.o (memcpy)
c:/devkitpro/devkitarm/bin/../lib/gcc/arm-eabi/4.4.3/../../../../arm-eabi/lib/thumb\libg.a(lib_a-memmove.o)
                              c:/devkitPro/libnds/lib\libfat.a(directory.o) (memmove)
c:/devkitpro/devkitarm/bin/../lib/gcc/arm-eabi/4.4.3/../../../../arm-eabi/lib/thumb\libg.a(lib_a-memset.o)
                              ky_geturl.o (memset)
c:/devkitpro/devkitarm/bin/../lib/gcc/arm-eabi/4.4.3/../../../../arm-eabi/lib/thumb\libg.a(lib_a-mktime.o)
                              c:/devkitPro/libnds/lib\libfat.a(filetime.o) (mktime)
c:/devkitpro/devkitarm/bin/../lib/gcc/arm-eabi/4.4.3/../../../../arm-eabi/lib/thumb\libg.a(lib_a-mktm_r.o)
                              c:/devkitpro/devkitarm/bin/../lib/gcc/arm-eabi/4.4.3/../../../../arm-eabi/lib/thumb\libg.a(lib_a-mktime.o) (__tzcalc_limits)
c:/devkitpro/devkitarm/bin/../lib/gcc/arm-eabi/4.4.3/../../../../arm-eabi/lib/thumb\libg.a(lib_a-mlock.o)
                              c:/devkitpro/devkitarm/bin/../lib/gcc/arm-eabi/4.4.3/../../../../arm-eabi/lib/thumb\libg.a(lib_a-freer.o) (__malloc_lock)
c:/devkitpro/devkitarm/bin/../lib/gcc/arm-eabi/4.4.3/../../../../arm-eabi/lib/thumb\libg.a(lib_a-realloc.o)
                              ky_geturl.o (realloc)
c:/devkitpro/devkitarm/bin/../lib/gcc/arm-eabi/4.4.3/../../../../arm-eabi/lib/thumb\libg.a(lib_a-reallocr.o)
                              c:/devkitpro/devkitarm/bin/../lib/gcc/arm-eabi/4.4.3/../../../../arm-eabi/lib/thumb\libg.a(lib_a-realloc.o) (_realloc_r)
c:/devkitpro/devkitarm/bin/../lib/gcc/arm-eabi/4.4.3/../../../../arm-eabi/lib/thumb\libg.a(lib_a-refill.o)
                              c:/devkitpro/devkitarm/bin/../lib/gcc/arm-eabi/4.4.3/../../../../arm-eabi/lib/thumb\libg.a(lib_a-fread.o) (__srefill_r)
c:/devkitpro/devkitarm/bin/../lib/gcc/arm-eabi/4.4.3/../../../../arm-eabi/lib/thumb\libg.a(lib_a-rewind.o)
                              main.o (rewind)
c:/devkitpro/devkitarm/bin/../lib/gcc/arm-eabi/4.4.3/../../../../arm-eabi/lib/thumb\libg.a(lib_a-setvbuf.o)
                              c:/devkitPro/libnds/lib\libnds9.a(console.o) (setvbuf)
c:/devkitpro/devkitarm/bin/../lib/gcc/arm-eabi/4.4.3/../../../../arm-eabi/lib/thumb\libg.a(lib_a-siscanf.o)
                              c:/devkitPro/libnds/lib\libnds9.a(console.o) (siscanf)
c:/devkitpro/devkitarm/bin/../lib/gcc/arm-eabi/4.4.3/../../../../arm-eabi/lib/thumb\libg.a(lib_a-snprintf.o)
                              ky_geturl.o (snprintf)
c:/devkitpro/devkitarm/bin/../lib/gcc/arm-eabi/4.4.3/../../../../arm-eabi/lib/thumb\libg.a(lib_a-sprintf.o)
                              main.o (sprintf)
c:/devkitpro/devkitarm/bin/../lib/gcc/arm-eabi/4.4.3/../../../../arm-eabi/lib/thumb\libg.a(lib_a-stdio.o)
                              c:/devkitpro/devkitarm/bin/../lib/gcc/arm-eabi/4.4.3/../../../../arm-eabi/lib/thumb\libg.a(lib_a-siscanf.o) (__seofread)
c:/devkitpro/devkitarm/bin/../lib/gcc/arm-eabi/4.4.3/../../../../arm-eabi/lib/thumb\libg.a(lib_a-strcasecmp.o)
                              c:/devkitPro/PAlib/lib\libpa9.a(PA_Stuff.o) (strcasecmp)
c:/devkitpro/devkitarm/bin/../lib/gcc/arm-eabi/4.4.3/../../../../arm-eabi/lib/thumb\libg.a(lib_a-strcat.o)
                              c:/devkitPro/PAlib/lib\libpa9.a(PA_Stuff.o) (strcat)
c:/devkitpro/devkitarm/bin/../lib/gcc/arm-eabi/4.4.3/../../../../arm-eabi/lib/thumb\libg.a(lib_a-strchr.o)
                              ky_geturl.o (strchr)
c:/devkitpro/devkitarm/bin/../lib/gcc/arm-eabi/4.4.3/../../../../arm-eabi/lib/thumb\libg.a(lib_a-strcmp.o)
                              main.o (strcmp)
c:/devkitpro/devkitarm/bin/../lib/gcc/arm-eabi/4.4.3/../../../../arm-eabi/lib/thumb\libg.a(lib_a-strcpy.o)
                              c:/devkitPro/PAlib/lib\libpa9.a(PA_Stuff.o) (strcpy)
c:/devkitpro/devkitarm/bin/../lib/gcc/arm-eabi/4.4.3/../../../../arm-eabi/lib/thumb\libg.a(lib_a-strlcpy.o)
                              c:/devkitpro/devkitarm/bin/../lib/gcc/arm-eabi/4.4.3/../../../../arm-eabi/lib/thumb\libg.a(lib_a-locale.o) (strlcpy)
c:/devkitpro/devkitarm/bin/../lib/gcc/arm-eabi/4.4.3/../../../../arm-eabi/lib/thumb\libg.a(lib_a-strlen.o)
                              ky_geturl.o (strlen)
c:/devkitpro/devkitarm/bin/../lib/gcc/arm-eabi/4.4.3/../../../../arm-eabi/lib/thumb\libg.a(lib_a-strncasecmp.o)
                              c:/devkitPro/libnds/lib\libfat.a(libfat.o) (strncasecmp)
c:/devkitpro/devkitarm/bin/../lib/gcc/arm-eabi/4.4.3/../../../../arm-eabi/lib/thumb\libg.a(lib_a-strncmp.o)
                              c:/devkitPro/libnds/lib\libfat.a(libfat.o) (strncmp)
c:/devkitpro/devkitarm/bin/../lib/gcc/arm-eabi/4.4.3/../../../../arm-eabi/lib/thumb\libg.a(lib_a-strncpy.o)
                              c:/devkitPro/libnds/lib\libfat.a(libfat.o) (strncpy)
c:/devkitpro/devkitarm/bin/../lib/gcc/arm-eabi/4.4.3/../../../../arm-eabi/lib/thumb\libg.a(lib_a-strnlen.o)
                              c:/devkitPro/libnds/lib\libfat.a(directory.o) (strnlen)
c:/devkitpro/devkitarm/bin/../lib/gcc/arm-eabi/4.4.3/../../../../arm-eabi/lib/thumb\libg.a(lib_a-strpbrk.o)
                              c:/devkitPro/libnds/lib\libfat.a(directory.o) (strpbrk)
c:/devkitpro/devkitarm/bin/../lib/gcc/arm-eabi/4.4.3/../../../../arm-eabi/lib/thumb\libg.a(lib_a-strrchr.o)
                              c:/devkitPro/libnds/lib\libfat.a(libfat.o) (strrchr)
c:/devkitpro/devkitarm/bin/../lib/gcc/arm-eabi/4.4.3/../../../../arm-eabi/lib/thumb\libg.a(lib_a-strstr.o)
                              ky_geturl.o (strstr)
c:/devkitpro/devkitarm/bin/../lib/gcc/arm-eabi/4.4.3/../../../../arm-eabi/lib/thumb\libg.a(lib_a-strtol.o)
                              c:/devkitpro/devkitarm/bin/../lib/gcc/arm-eabi/4.4.3/../../../../arm-eabi/lib/thumb\libg.a(lib_a-locale.o) (_strtol_r)
c:/devkitpro/devkitarm/bin/../lib/gcc/arm-eabi/4.4.3/../../../../arm-eabi/lib/thumb\libg.a(lib_a-strtoul.o)
                              ky_geturl.o (strtoul)
c:/devkitpro/devkitarm/bin/../lib/gcc/arm-eabi/4.4.3/../../../../arm-eabi/lib/thumb\libg.a(lib_a-svfiscanf.o)
                              c:/devkitpro/devkitarm/bin/../lib/gcc/arm-eabi/4.4.3/../../../../arm-eabi/lib/thumb\libg.a(lib_a-siscanf.o) (__ssvfiscanf_r)
c:/devkitpro/devkitarm/bin/../lib/gcc/arm-eabi/4.4.3/../../../../arm-eabi/lib/thumb\libg.a(lib_a-svfprintf.o)
                              c:/devkitpro/devkitarm/bin/../lib/gcc/arm-eabi/4.4.3/../../../../arm-eabi/lib/thumb\libg.a(lib_a-snprintf.o) (_svfprintf_r)
c:/devkitpro/devkitarm/bin/../lib/gcc/arm-eabi/4.4.3/../../../../arm-eabi/lib/thumb\libg.a(lib_a-sysclose.o)
                              c:/devkitPro/libnds/lib\libnds9.a(dldi.o) (close)
c:/devkitpro/devkitarm/bin/../lib/gcc/arm-eabi/4.4.3/../../../../arm-eabi/lib/thumb\libg.a(lib_a-syslseek.o)
                              c:/devkitPro/libnds/lib\libnds9.a(dldi.o) (lseek)
c:/devkitpro/devkitarm/bin/../lib/gcc/arm-eabi/4.4.3/../../../../arm-eabi/lib/thumb\libg.a(lib_a-sysopen.o)
                              c:/devkitPro/libnds/lib\libnds9.a(dldi.o) (open)
c:/devkitpro/devkitarm/bin/../lib/gcc/arm-eabi/4.4.3/../../../../arm-eabi/lib/thumb\libg.a(lib_a-sysread.o)
                              c:/devkitPro/libnds/lib\libnds9.a(dldi.o) (read)
c:/devkitpro/devkitarm/bin/../lib/gcc/arm-eabi/4.4.3/../../../../arm-eabi/lib/thumb\libg.a(lib_a-sysstat.o)
                              c:/devkitPro/PAlib/lib\libpa9.a(PA_Stuff.o) (stat)
c:/devkitpro/devkitarm/bin/../lib/gcc/arm-eabi/4.4.3/../../../../arm-eabi/lib/thumb\libg.a(lib_a-time.o)
                              c:/devkitPro/PAlib/lib\libpa9.a(PA_RTC.o) (time)
c:/devkitpro/devkitarm/bin/../lib/gcc/arm-eabi/4.4.3/../../../../arm-eabi/lib/thumb\libg.a(lib_a-towlower.o)
                              c:/devkitPro/libnds/lib\libfat.a(directory.o) (towlower)
c:/devkitpro/devkitarm/bin/../lib/gcc/arm-eabi/4.4.3/../../../../arm-eabi/lib/thumb\libg.a(lib_a-towupper.o)
                              c:/devkitPro/libnds/lib\libfat.a(directory.o) (towupper)
c:/devkitpro/devkitarm/bin/../lib/gcc/arm-eabi/4.4.3/../../../../arm-eabi/lib/thumb\libg.a(lib_a-tzlock.o)
                              c:/devkitpro/devkitarm/bin/../lib/gcc/arm-eabi/4.4.3/../../../../arm-eabi/lib/thumb\libg.a(lib_a-mktm_r.o) (__tz_lock)
c:/devkitpro/devkitarm/bin/../lib/gcc/arm-eabi/4.4.3/../../../../arm-eabi/lib/thumb\libg.a(lib_a-tzvars.o)
                              c:/devkitpro/devkitarm/bin/../lib/gcc/arm-eabi/4.4.3/../../../../arm-eabi/lib/thumb\libg.a(lib_a-mktime.o) (_daylight)
c:/devkitpro/devkitarm/bin/../lib/gcc/arm-eabi/4.4.3/../../../../arm-eabi/lib/thumb\libg.a(lib_a-ungetc.o)
                              c:/devkitpro/devkitarm/bin/../lib/gcc/arm-eabi/4.4.3/../../../../arm-eabi/lib/thumb\libg.a(lib_a-svfiscanf.o) (__submore)
c:/devkitpro/devkitarm/bin/../lib/gcc/arm-eabi/4.4.3/../../../../arm-eabi/lib/thumb\libg.a(lib_a-vfiprintf.o)
                              c:/devkitpro/devkitarm/bin/../lib/gcc/arm-eabi/4.4.3/../../../../arm-eabi/lib/thumb\libg.a(lib_a-iprintf.o) (_vfiprintf_r)
c:/devkitpro/devkitarm/bin/../lib/gcc/arm-eabi/4.4.3/../../../../arm-eabi/lib/thumb\libg.a(lib_a-vfprintf.o)
                              c:/devkitpro/devkitarm/bin/../lib/gcc/arm-eabi/4.4.3/../../../../arm-eabi/lib/thumb\libg.a(lib_a-fprintf.o) (_vfprintf_r)
c:/devkitpro/devkitarm/bin/../lib/gcc/arm-eabi/4.4.3/../../../../arm-eabi/lib/thumb\libg.a(lib_a-wcrtomb.o)
                              c:/devkitPro/libnds/lib\libfat.a(directory.o) (wcrtomb)
c:/devkitpro/devkitarm/bin/../lib/gcc/arm-eabi/4.4.3/../../../../arm-eabi/lib/thumb\libg.a(lib_a-wcsrtombs.o)
                              c:/devkitpro/devkitarm/bin/../lib/gcc/arm-eabi/4.4.3/../../../../arm-eabi/lib/thumb\libg.a(lib_a-svfprintf.o) (_wcsrtombs_r)
c:/devkitpro/devkitarm/bin/../lib/gcc/arm-eabi/4.4.3/../../../../arm-eabi/lib/thumb\libg.a(lib_a-wctob.o)
                              c:/devkitPro/libnds/lib\libfat.a(directory.o) (wctob)
c:/devkitpro/devkitarm/bin/../lib/gcc/arm-eabi/4.4.3/../../../../arm-eabi/lib/thumb\libg.a(lib_a-wctomb_r.o)
                              c:/devkitpro/devkitarm/bin/../lib/gcc/arm-eabi/4.4.3/../../../../arm-eabi/lib/thumb\libg.a(lib_a-locale.o) (__ascii_wctomb)
c:/devkitpro/devkitarm/bin/../lib/gcc/arm-eabi/4.4.3/../../../../arm-eabi/lib/thumb\libg.a(lib_a-wsetup.o)
                              c:/devkitpro/devkitarm/bin/../lib/gcc/arm-eabi/4.4.3/../../../../arm-eabi/lib/thumb\libg.a(lib_a-vfiprintf.o) (__swsetup_r)
c:/devkitpro/devkitarm/bin/../lib/gcc/arm-eabi/4.4.3/../../../../arm-eabi/lib/thumb\libg.a(lib_a-ctype_.o)
                              c:/devkitpro/devkitarm/bin/../lib/gcc/arm-eabi/4.4.3/../../../../arm-eabi/lib/thumb\libg.a(lib_a-locale.o) (__set_ctype)
c:/devkitpro/devkitarm/bin/../lib/gcc/arm-eabi/4.4.3/../../../../arm-eabi/lib/thumb\libg.a(lib_a-div.o)
                              c:/devkitpro/devkitarm/bin/../lib/gcc/arm-eabi/4.4.3/../../../../arm-eabi/lib/thumb\libg.a(lib_a-mktime.o) (div)
c:/devkitpro/devkitarm/bin/../lib/gcc/arm-eabi/4.4.3/../../../../arm-eabi/lib/thumb\libg.a(lib_a-dtoa.o)
                              c:/devkitpro/devkitarm/bin/../lib/gcc/arm-eabi/4.4.3/../../../../arm-eabi/lib/thumb\libg.a(lib_a-svfprintf.o) (_dtoa_r)
c:/devkitpro/devkitarm/bin/../lib/gcc/arm-eabi/4.4.3/../../../../arm-eabi/lib/thumb\libg.a(lib_a-flags.o)
                              c:/devkitpro/devkitarm/bin/../lib/gcc/arm-eabi/4.4.3/../../../../arm-eabi/lib/thumb\libg.a(lib_a-fopen.o) (__sflags)
c:/devkitpro/devkitarm/bin/../lib/gcc/arm-eabi/4.4.3/../../../../arm-eabi/lib/thumb\libg.a(lib_a-fputwc.o)
                              c:/devkitpro/devkitarm/bin/../lib/gcc/arm-eabi/4.4.3/../../../../arm-eabi/lib/thumb\libg.a(lib_a-vfiprintf.o) (_fputwc_r)
c:/devkitpro/devkitarm/bin/../lib/gcc/arm-eabi/4.4.3/../../../../arm-eabi/lib/thumb\libg.a(lib_a-fvwrite.o)
                              c:/devkitpro/devkitarm/bin/../lib/gcc/arm-eabi/4.4.3/../../../../arm-eabi/lib/thumb\libg.a(lib_a-fwrite.o) (__sfvwrite_r)
c:/devkitpro/devkitarm/bin/../lib/gcc/arm-eabi/4.4.3/../../../../arm-eabi/lib/thumb\libg.a(lib_a-getenv_r.o)
                              c:/devkitpro/devkitarm/bin/../lib/gcc/arm-eabi/4.4.3/../../../../arm-eabi/lib/thumb\libg.a(lib_a-locale.o) (_getenv_r)
c:/devkitpro/devkitarm/bin/../lib/gcc/arm-eabi/4.4.3/../../../../arm-eabi/lib/thumb\libg.a(lib_a-gettzinfo.o)
                              c:/devkitpro/devkitarm/bin/../lib/gcc/arm-eabi/4.4.3/../../../../arm-eabi/lib/thumb\libg.a(lib_a-mktime.o) (__gettzinfo)
c:/devkitpro/devkitarm/bin/../lib/gcc/arm-eabi/4.4.3/../../../../arm-eabi/lib/thumb\libg.a(lib_a-iswspace.o)
                              c:/devkitpro/devkitarm/bin/../lib/gcc/arm-eabi/4.4.3/../../../../arm-eabi/lib/thumb\libg.a(lib_a-svfiscanf.o) (iswspace)
c:/devkitpro/devkitarm/bin/../lib/gcc/arm-eabi/4.4.3/../../../../arm-eabi/lib/thumb\libg.a(lib_a-jp2uc.o)
                              c:/devkitpro/devkitarm/bin/../lib/gcc/arm-eabi/4.4.3/../../../../arm-eabi/lib/thumb\libg.a(lib_a-towlower.o) (_jp2uc)
c:/devkitpro/devkitarm/bin/../lib/gcc/arm-eabi/4.4.3/../../../../arm-eabi/lib/thumb\libg.a(lib_a-mbsnrtowcs.o)
                              c:/devkitpro/devkitarm/bin/../lib/gcc/arm-eabi/4.4.3/../../../../arm-eabi/lib/thumb\libg.a(lib_a-mbsrtowcs.o) (_mbsnrtowcs_r)
c:/devkitpro/devkitarm/bin/../lib/gcc/arm-eabi/4.4.3/../../../../arm-eabi/lib/thumb\libg.a(lib_a-memchr.o)
                              c:/devkitpro/devkitarm/bin/../lib/gcc/arm-eabi/4.4.3/../../../../arm-eabi/lib/thumb\libg.a(lib_a-strstr.o) (memchr)
c:/devkitpro/devkitarm/bin/../lib/gcc/arm-eabi/4.4.3/../../../../arm-eabi/lib/thumb\libg.a(lib_a-mprec.o)
                              c:/devkitpro/devkitarm/bin/../lib/gcc/arm-eabi/4.4.3/../../../../arm-eabi/lib/thumb\libg.a(lib_a-dtoa.o) (_Bfree)
c:/devkitpro/devkitarm/bin/../lib/gcc/arm-eabi/4.4.3/../../../../arm-eabi/lib/thumb\libg.a(lib_a-s_fpclassify.o)
                              c:/devkitpro/devkitarm/bin/../lib/gcc/arm-eabi/4.4.3/../../../../arm-eabi/lib/thumb\libg.a(lib_a-svfprintf.o) (__fpclassifyd)
c:/devkitpro/devkitarm/bin/../lib/gcc/arm-eabi/4.4.3/../../../../arm-eabi/lib/thumb\libg.a(lib_a-sccl.o)
                              c:/devkitpro/devkitarm/bin/../lib/gcc/arm-eabi/4.4.3/../../../../arm-eabi/lib/thumb\libg.a(lib_a-svfiscanf.o) (__sccl)
c:/devkitpro/devkitarm/bin/../lib/gcc/arm-eabi/4.4.3/../../../../arm-eabi/lib/thumb\libg.a(lib_a-svfiprintf.o)
                              c:/devkitpro/devkitarm/bin/../lib/gcc/arm-eabi/4.4.3/../../../../arm-eabi/lib/thumb\libg.a(lib_a-svfprintf.o) (__ssprint_r)
c:/devkitpro/devkitarm/bin/../lib/gcc/arm-eabi/4.4.3/../../../../arm-eabi/lib/thumb\libg.a(lib_a-wbuf.o)
                              c:/devkitpro/devkitarm/bin/../lib/gcc/arm-eabi/4.4.3/../../../../arm-eabi/lib/thumb\libg.a(lib_a-fputwc.o) (__swbuf_r)
c:/devkitpro/devkitarm/bin/../lib/gcc/arm-eabi/4.4.3/../../../../arm-eabi/lib/thumb\libg.a(lib_a-wcsnrtombs.o)
                              c:/devkitpro/devkitarm/bin/../lib/gcc/arm-eabi/4.4.3/../../../../arm-eabi/lib/thumb\libg.a(lib_a-wcsrtombs.o) (_wcsnrtombs_r)
c:/devkitpro/devkitarm/bin/../lib/gcc/arm-eabi/4.4.3/../../../../arm-eabi/lib/thumb\libg.a(lib_a-environ.o)
                              c:/devkitpro/devkitarm/bin/../lib/gcc/arm-eabi/4.4.3/../../../../arm-eabi/lib/thumb\libg.a(lib_a-getenv_r.o) (environ)
c:/devkitpro/devkitarm/bin/../lib/gcc/arm-eabi/4.4.3/../../../../arm-eabi/lib/thumb\libg.a(lib_a-envlock.o)
                              c:/devkitpro/devkitarm/bin/../lib/gcc/arm-eabi/4.4.3/../../../../arm-eabi/lib/thumb\libg.a(lib_a-getenv_r.o) (__env_lock)
c:/devkitpro/devkitarm/bin/../lib/gcc/arm-eabi/4.4.3/../../../../arm-eabi/lib/thumb\libsysbase.a(iosupport.o)
                              c:/devkitPro/libnds/lib\libfat.a(libfat.o) (AddDevice)
c:/devkitpro/devkitarm/bin/../lib/gcc/arm-eabi/4.4.3/../../../../arm-eabi/lib/thumb\libsysbase.a(close.o)
                              c:/devkitpro/devkitarm/bin/../lib/gcc/arm-eabi/4.4.3/../../../../arm-eabi/lib/thumb\libg.a(lib_a-stdio.o) (_close_r)
c:/devkitpro/devkitarm/bin/../lib/gcc/arm-eabi/4.4.3/../../../../arm-eabi/lib/thumb\libsysbase.a(fstat.o)
                              c:/devkitpro/devkitarm/bin/../lib/gcc/arm-eabi/4.4.3/../../../../arm-eabi/lib/thumb\libg.a(lib_a-fseek.o) (_fstat_r)
c:/devkitpro/devkitarm/bin/../lib/gcc/arm-eabi/4.4.3/../../../../arm-eabi/lib/thumb\libsysbase.a(isatty.o)
                              c:/devkitpro/devkitarm/bin/../lib/gcc/arm-eabi/4.4.3/../../../../arm-eabi/lib/thumb\libg.a(lib_a-makebuf.o) (_isatty_r)
c:/devkitpro/devkitarm/bin/../lib/gcc/arm-eabi/4.4.3/../../../../arm-eabi/lib/thumb\libsysbase.a(lseek.o)
                              c:/devkitpro/devkitarm/bin/../lib/gcc/arm-eabi/4.4.3/../../../../arm-eabi/lib/thumb\libg.a(lib_a-stdio.o) (_lseek_r)
c:/devkitpro/devkitarm/bin/../lib/gcc/arm-eabi/4.4.3/../../../../arm-eabi/lib/thumb\libsysbase.a(open.o)
                              c:/devkitpro/devkitarm/bin/../lib/gcc/arm-eabi/4.4.3/../../../../arm-eabi/lib/thumb\libg.a(lib_a-fopen.o) (_open_r)
c:/devkitpro/devkitarm/bin/../lib/gcc/arm-eabi/4.4.3/../../../../arm-eabi/lib/thumb\libsysbase.a(read.o)
                              c:/devkitpro/devkitarm/bin/../lib/gcc/arm-eabi/4.4.3/../../../../arm-eabi/lib/thumb\libg.a(lib_a-stdio.o) (_read_r)
c:/devkitpro/devkitarm/bin/../lib/gcc/arm-eabi/4.4.3/../../../../arm-eabi/lib/thumb\libsysbase.a(sbrk.o)
                              c:/devkitpro/devkitarm/bin/../lib/gcc/arm-eabi/4.4.3/../../../../arm-eabi/lib/thumb\libg.a(lib_a-freer.o) (_sbrk_r)
c:/devkitpro/devkitarm/bin/../lib/gcc/arm-eabi/4.4.3/../../../../arm-eabi/lib/thumb\libsysbase.a(stat.o)
                              c:/devkitpro/devkitarm/bin/../lib/gcc/arm-eabi/4.4.3/../../../../arm-eabi/lib/thumb\libg.a(lib_a-sysstat.o) (_stat_r)
c:/devkitpro/devkitarm/bin/../lib/gcc/arm-eabi/4.4.3/../../../../arm-eabi/lib/thumb\libsysbase.a(times.o)
                              c:/devkitpro/devkitarm/bin/../lib/gcc/arm-eabi/4.4.3/../../../../arm-eabi/lib/thumb\libg.a(lib_a-time.o) (_gettimeofday_r)
c:/devkitpro/devkitarm/bin/../lib/gcc/arm-eabi/4.4.3/../../../../arm-eabi/lib/thumb\libsysbase.a(write.o)
                              c:/devkitpro/devkitarm/bin/../lib/gcc/arm-eabi/4.4.3/../../../../arm-eabi/lib/thumb\libg.a(lib_a-stdio.o) (_write_r)
c:/devkitpro/devkitarm/bin/../lib/gcc/arm-eabi/4.4.3/../../../../arm-eabi/lib/thumb\libsysbase.a(malloc_vars.o)
                              c:/devkitpro/devkitarm/bin/../lib/gcc/arm-eabi/4.4.3/../../../../arm-eabi/lib/thumb/ds_arm9_crt0.o (fake_heap_end)
c:/devkitpro/devkitarm/bin/../lib/gcc/arm-eabi/4.4.3/../../../../arm-eabi/lib/thumb\libsysbase.a(chdir.o)
                              c:/devkitPro/libnds/lib\libfat.a(libfat.o) (chdir)
c:/devkitpro/devkitarm/bin/../lib/gcc/arm-eabi/4.4.3/../../../../arm-eabi/lib/thumb\libsysbase.a(build_argv.o)
                              c:/devkitpro/devkitarm/bin/../lib/gcc/arm-eabi/4.4.3/../../../../arm-eabi/lib/thumb/ds_arm9_crt0.o (build_argv)
c:/devkitpro/devkitarm/bin/../lib/gcc/arm-eabi/4.4.3/../../../../arm-eabi/lib/thumb\libsysbase.a(syscall_support.o)
                              c:/devkitPro/libnds/lib\libnds9.a(initSystem.o) (__syscalls)
c:/devkitpro/devkitarm/bin/../lib/gcc/arm-eabi/4.4.3/../../../../arm-eabi/lib/thumb\libsysbase.a(handle_manager.o)
                              c:/devkitpro/devkitarm/bin/../lib/gcc/arm-eabi/4.4.3/../../../../arm-eabi/lib/thumb\libsysbase.a(close.o) (__get_handle)
c:/devkitpro/devkitarm/bin/../lib/gcc/arm-eabi/4.4.3/../../../../arm-eabi/lib/thumb\libsysbase.a(dirent.o)
                              c:/devkitPro/PAlib/lib\libpa9.a(PA_Stuff.o) (readdir)
c:/devkitpro/devkitarm/bin/../lib/gcc/arm-eabi/4.4.3/../../../../arm-eabi/lib/thumb\libsysbase.a(dir.o)
                              c:/devkitpro/devkitarm/bin/../lib/gcc/arm-eabi/4.4.3/../../../../arm-eabi/lib/thumb\libsysbase.a(dirent.o) (dirreset)

Allocating common symbols
Common symbol       size              file

Wifi_Data_Struct    0x9f44            c:/devkitPro/libnds/lib\libdswifi9.a(wifi_arm9.o)
dnsrecord_return    0x524             c:/devkitPro/libnds/lib\libdswifi9.a(sgIP_DNS.o)
PA_ScreenSpace      0x2               c:/devkitPro/PAlib/lib\libpa9.a(PA.o)
tcprecords          0x4               c:/devkitPro/libnds/lib\libdswifi9.a(sgIP_TCP.o)
entrer_score        0x1               main.o
ProtocolInterfaces  0x8               c:/devkitPro/libnds/lib\libdswifi9.a(sgIP_Hub.o)
currentCopy         0x5c              c:/devkitPro/libnds/lib\libnds9.a(console.o)
udpport_counter     0x4               c:/devkitPro/libnds/lib\libdswifi9.a(sgIP_UDP.o)
PA_Reco             0xc               c:/devkitPro/PAlib/lib\libpa9.a(PA_Reco.o)
fifo_datamsg_data   0x40              c:/devkitPro/libnds/lib\libnds9.a(fifosystem.o)
PA_Draw16           0x8               c:/devkitPro/PAlib/lib\libpa9.a(PA_16c.o)
selection_match     0x1               main.o
j                   0x4               main.o
count_100ms         0x4               c:/devkitPro/libnds/lib\libdswifi9.a(sgIP.o)
PA_RTC              0x8               c:/devkitPro/PAlib/lib\libpa9.a(PA_RTC.o)
free_mem            0x2000            c:/devkitPro/PAlib/lib\libpa9.a(PA_Sprite.o)
lasttime            0x4               c:/devkitPro/libnds/lib\libdswifi9.a(sgIP_TCP.o)
PadPointer          0x4               c:/devkitPro/PAlib/lib\libpa9.a(PA.o)
dhcp_rcvd_dns       0xc               c:/devkitPro/libnds/lib\libdswifi9.a(sgIP_DHCP.o)
selection_y         0x1               main.o
Finales             0x4               main.o
bgState             0x140             c:/devkitPro/libnds/lib\libnds9.a(background.o)
time_count          0x4               c:/devkitPro/libnds/lib\libdswifi9.a(sgIP_DNS.o)
port_counter        0x4               c:/devkitPro/libnds/lib\libdswifi9.a(sgIP_TCP.o)
dhcp_rcvd_snmask    0x4               c:/devkitPro/libnds/lib\libdswifi9.a(sgIP_DHCP.o)
fifo_buffer         0x800             c:/devkitPro/libnds/lib\libnds9.a(fifosystem.o)
PA_texttiles        0x8               c:/devkitPro/PAlib/lib\libpa9.a(PA_Text.o)
NumHWInterfaces     0x4               c:/devkitPro/libnds/lib\libdswifi9.a(sgIP_Hub.o)
n_free_mem          0x4               c:/devkitPro/PAlib/lib\libpa9.a(PA_Sprite.o)
dhcp_state          0x4               c:/devkitPro/libnds/lib\libdswifi9.a(sgIP_DHCP.o)
PA_SpritePrio       0x100             c:/devkitPro/PAlib/lib\libpa9.a(PA_Sprite.o)
alias_list          0x14              c:/devkitPro/libnds/lib\libdswifi9.a(sgIP_DNS.o)
dhcp_p              0x4               c:/devkitPro/libnds/lib\libdswifi9.a(sgIP_DHCP.o)
quatrieme           0x1               main.o
PA_LetterPos        0x3004            c:/devkitPro/PAlib/lib\libpa9.a(PA_TextBits.o)
dhcp_optionptr      0x4               c:/devkitPro/libnds/lib\libdswifi9.a(sgIP_DHCP.o)
groupe_courant      0x1               main.o
socketlist          0x100             c:/devkitPro/libnds/lib\libdswifi9.a(sgIP_sockets.o)
bgIsTextLut         0x8               c:/devkitPro/libnds/lib\libnds9.a(background.o)
PA_olddowntime      0x4               c:/devkitPro/PAlib/lib\libpa9.a(PA_Draw.o)
querydata           0x200             c:/devkitPro/libnds/lib\libdswifi9.a(sgIP_DNS.o)
responsedata        0x200             c:/devkitPro/libnds/lib\libdswifi9.a(sgIP_DNS.o)
PA_Keyboard_Struct  0x12              c:/devkitPro/PAlib/lib\libpa9.a(PA_Keyboard.o)
dhcp_int            0x4               c:/devkitPro/libnds/lib\libdswifi9.a(sgIP_DHCP.o)
PA_VBLCounter       0x40              c:/devkitPro/PAlib/lib\libpa9.a(PA_Interrupt.o)
PA_parallaxY        0x20              c:/devkitPro/PAlib/lib\libpa9.a(PA_BgTiles.o)
used_mem            0x800             c:/devkitPro/PAlib/lib\libpa9.a(PA_Sprite.o)
fifo_value32_func   0x40              c:/devkitPro/libnds/lib\libnds9.a(fifosystem.o)
fifo_address_func   0x40              c:/devkitPro/libnds/lib\libnds9.a(fifosystem.o)
PA_parallaxX        0x20              c:/devkitPro/PAlib/lib\libpa9.a(PA_BgTiles.o)
Quarts              0x8               main.o
PA_DrawBg32         0x8               c:/devkitPro/PAlib/lib\libpa9.a(PA_Draw.o)
pa_checklid         0x1               c:/devkitPro/PAlib/lib\libpa9.a(PA.o)
PA_RecoInfo         0x18              c:/devkitPro/PAlib/lib\libpa9.a(PA_Reco.o)
Demi                0x4               main.o
temppalette         0x4               c:/devkitPro/PAlib/lib\libpa9.a(PA_Gif.o)
quarts              0xb0              main.o
spriteanims         0x2400            c:/devkitPro/PAlib/lib\libpa9.a(PA_Sprite.o)
PA_SpriteAnimP      0x2000            c:/devkitPro/PAlib/lib\libpa9.a(PA_Sprite.o)
PA_IPC              0x198             c:/devkitPro/PAlib/lib\libpa9.a(PA.o)
gifheight           0x2               c:/devkitPro/PAlib/lib\libpa9.a(PA_Gif.o)
Pad                 0x27              c:/devkitPro/PAlib/lib\libpa9.a(PA.o)
dnsrecords          0x5240            c:/devkitPro/libnds/lib\libdswifi9.a(sgIP_DNS.o)
PA_TextBox          0x8               c:/devkitPro/PAlib/lib\libpa9.a(PA_Text.o)
wifi_hw             0x4               c:/devkitPro/libnds/lib\libdswifi9.a(wifi_arm9.o)
PAbgtext            0x2               c:/devkitPro/PAlib/lib\libpa9.a(PA_Text.o)
dhcp_rcvd_ip        0x4               c:/devkitPro/libnds/lib\libdswifi9.a(sgIP_DHCP.o)
state               0x1               main.o
selection           0x1               main.o
tempsize            0x2               c:/devkitPro/PAlib/lib\libpa9.a(PA_BgTiles.o)
dhcp_hostname       0x40              c:/devkitPro/libnds/lib\libdswifi9.a(sgIP_DHCP.o)
dhcp_serverip       0x4               c:/devkitPro/libnds/lib\libdswifi9.a(sgIP_DHCP.o)
Huitiemes           0x10              main.o
HWInterfaces        0x30              c:/devkitPro/libnds/lib\libdswifi9.a(sgIP_Hub.o)
pa_printx           0x8               c:/devkitPro/PAlib/lib\libpa9.a(PA_Text.o)
stade_courant       0x1               main.o
pa_bittextpoliceheight
                    0xa               c:/devkitPro/PAlib/lib\libpa9.a(PA_TextBits.o)
huitieme_courant    0x1               main.o
premier             0x1               main.o
ipaddr_ip           0x4               c:/devkitPro/libnds/lib\libdswifi9.a(sgIP_DNS.o)
troisieme           0x1               main.o
i                   0x4               main.o
pa8bitbuffer        0x2               c:/devkitPro/PAlib/lib\libpa9.a(PA_Draw8bit.o)
gifwidth            0x2               c:/devkitPro/PAlib/lib\libpa9.a(PA_Gif.o)
Stylus              0x1c              c:/devkitPro/PAlib/lib\libpa9.a(PA.o)
penalty             0x1               main.o
PA_first            0x200             c:/devkitPro/PAlib/lib\libpa9.a(PA_Sprite.o)
LineBuf             0x800             c:/devkitPro/PAlib/lib\libpa9.a(PA_Gif.o)
buffer              0x4               main.o
pa_bittextsizes     0xa               c:/devkitPro/PAlib/lib\libpa9.a(PA_TextBits.o)
wHeapsize           0x4               c:/devkitPro/libnds/lib\libdswifi9.a(wifi_arm9.o)
fifo_value32_data   0x40              c:/devkitPro/libnds/lib\libnds9.a(fifosystem.o)
charblocks          0x8c              c:/devkitPro/PAlib/lib\libpa9.a(PA_BgTiles.o)
PA_next             0x100             c:/devkitPro/PAlib/lib\libpa9.a(PA_Sprite.o)
PA_bgmap            0x20              c:/devkitPro/PAlib/lib\libpa9.a(PA.o)
PA_GifInfo          0x14              c:/devkitPro/PAlib/lib\libpa9.a(PA.o)
fifo_value32_queue  0x40              c:/devkitPro/libnds/lib\libnds9.a(fifosystem.o)
PA_StylusPos        0x9c40            c:/devkitPro/PAlib/lib\libpa9.a(PA_Reco.o)
fifo_data_queue     0x40              c:/devkitPro/libnds/lib\libnds9.a(fifosystem.o)
count_1000ms        0x4               c:/devkitPro/libnds/lib\libdswifi9.a(sgIP.o)
dhcp_tid            0x4               c:/devkitPro/libnds/lib\libdswifi9.a(sgIP_DHCP.o)
sgIP_timems         0x4               c:/devkitPro/libnds/lib\libdswifi9.a(sgIP.o)
rotbg_size          0x8               c:/devkitPro/PAlib/lib\libpa9.a(PA_BgRot.o)
ArpRecords          0x400             c:/devkitPro/libnds/lib\libdswifi9.a(sgIP_ARP.o)
PA_VBLCounterOn     0x10              c:/devkitPro/PAlib/lib\libpa9.a(PA_Interrupt.o)
startmenu           0x1               main.o
pa_printy           0x8               c:/devkitPro/PAlib/lib\libpa9.a(PA_Text.o)
PA_DrawBg           0x8               c:/devkitPro/PAlib/lib\libpa9.a(PA_Draw.o)
PA_oldx             0x4               c:/devkitPro/PAlib/lib\libpa9.a(PA_Draw.o)
query_time_start    0x4               c:/devkitPro/libnds/lib\libdswifi9.a(sgIP_DNS.o)
equipe              0x500             main.o
dhcp_requestDNS     0x4               c:/devkitPro/libnds/lib\libdswifi9.a(sgIP_DHCP.o)
dhcp_socket         0x4               c:/devkitPro/libnds/lib\libdswifi9.a(sgIP_DHCP.o)
wHeapFirst          0x4               c:/devkitPro/libnds/lib\libdswifi9.a(wifi_arm9.o)
udprecords          0x4               c:/devkitPro/libnds/lib\libdswifi9.a(sgIP_UDP.o)
textcol             0x4               c:/devkitPro/PAlib/lib\libpa9.a(PA_Text.o)
huitieme            0x160             main.o
gifinfo             0x4               c:/devkitPro/PAlib/lib\libpa9.a(PA_Gif.o)
wifi_connect_point  0x58              c:/devkitPro/libnds/lib\libdswifi9.a(wifi_arm9.o)
numsynlist          0x4               c:/devkitPro/libnds/lib\libdswifi9.a(sgIP_TCP.o)
PA_drawsize         0x2               c:/devkitPro/PAlib/lib\libpa9.a(PA_Draw.o)
addr_list           0x14              c:/devkitPro/libnds/lib\libdswifi9.a(sgIP_DNS.o)
obj_per_gfx         0x800             c:/devkitPro/PAlib/lib\libpa9.a(PA_Sprite.o)
PA_CustomShape      0xd48             c:/devkitPro/PAlib/lib\libpa9.a(PA_Reco.o)
deuxieme            0x1               main.o
PA_RecoShape        0x10              c:/devkitPro/PAlib/lib\libpa9.a(PA_Reco.o)
pa_printscroll      0x4               c:/devkitPro/PAlib/lib\libpa9.a(PA_Text.o)
PA_oldy             0x4               c:/devkitPro/PAlib/lib\libpa9.a(PA_Draw.o)
PA_MovedSprite      0x10              c:/devkitPro/PAlib/lib\libpa9.a(PA.o)
PA_BgInfo           0x220             c:/devkitPro/PAlib/lib\libpa9.a(PA_BgTiles.o)
tempvar             0x2               c:/devkitPro/PAlib/lib\libpa9.a(PA_Draw.o)
langue              0x1               main.o
punixTime           0x4               c:/devkitpro/devkitarm/bin/../lib/gcc/arm-eabi/4.4.3/../../../../arm-eabi/lib/thumb\libsysbase.a(times.o)
synlist             0x800             c:/devkitPro/libnds/lib\libdswifi9.a(sgIP_TCP.o)
fifo_address_data   0x40              c:/devkitPro/libnds/lib\libnds9.a(fifosystem.o)
ipaddr_alias        0x100             c:/devkitPro/libnds/lib\libdswifi9.a(sgIP_DNS.o)
_PA_LidDown         0x1               c:/devkitPro/PAlib/lib\libpa9.a(PA_Keys.o)
demi                0x58              main.o
dhcp_timestart      0x4               c:/devkitPro/libnds/lib\libdswifi9.a(sgIP_DHCP.o)
dhcp_status         0x4               c:/devkitPro/libnds/lib\libdswifi9.a(sgIP_DHCP.o)
PA_temppal          0x200             c:/devkitPro/PAlib/lib\libpa9.a(PA_Draw.o)
dns_sock            0x4               c:/devkitPro/libnds/lib\libdswifi9.a(sgIP_DNS.o)
match               0x840             main.o
PA_UserInfo         0x52              c:/devkitPro/PAlib/lib\libpa9.a(PA_RTC.o)
wHeapStart          0x4               c:/devkitPro/libnds/lib\libdswifi9.a(wifi_arm9.o)
last_id             0x4               c:/devkitPro/libnds/lib\libdswifi9.a(sgIP_DNS.o)
scrollpos           0xe0              c:/devkitPro/PAlib/lib\libpa9.a(PA_BgTiles.o)
PA_obj              0x800             c:/devkitPro/PAlib/lib\libpa9.a(PA_Sprite.o)
sgIP_errno          0x4               c:/devkitPro/libnds/lib\libdswifi9.a(sgIP.o)
dnsrecord_hostent   0x14              c:/devkitPro/libnds/lib\libdswifi9.a(sgIP_DNS.o)
dhcp_rcvd_gateway   0x4               c:/devkitPro/libnds/lib\libdswifi9.a(sgIP_DHCP.o)
finales             0x58              main.o
DualSpriteX         0x100             c:/devkitPro/PAlib/lib\libpa9.a(PA_Sprite.o)
groupe              0x10              main.o
m                   0x4               c:/devkitPro/PAlib/lib\libpa9.a(PA_Gif.o)
PA_textpal          0x8               c:/devkitPro/PAlib/lib\libpa9.a(PA_Text.o)
PA_nBit             0x2               c:/devkitPro/PAlib/lib\libpa9.a(PA_Draw.o)
maj                 0x1               main.o
NumProtocolInterfaces
                    0x4               c:/devkitPro/libnds/lib\libdswifi9.a(sgIP_Hub.o)
equipe_courant      0x1               main.o
fifo_datamsg_func   0x40              c:/devkitPro/libnds/lib\libnds9.a(fifosystem.o)
idnum_count         0x4               c:/devkitPro/libnds/lib\libdswifi9.a(sgIP_IP.o)
dhcp_timelastaction
                    0x4               c:/devkitPro/libnds/lib\libdswifi9.a(sgIP_DHCP.o)
tempscreen          0x4               c:/devkitPro/PAlib/lib\libpa9.a(PA_Gif.o)
PA_Draw1632         0x8               c:/devkitPro/PAlib/lib\libpa9.a(PA_16c.o)
fifo_address_queue  0x40              c:/devkitPro/libnds/lib\libnds9.a(fifosystem.o)
PA_textmap          0x8               c:/devkitPro/PAlib/lib\libpa9.a(PA_Text.o)
GifBits             0x1               c:/devkitPro/PAlib/lib\libpa9.a(PA_Gif.o)
PA_ExtPal           0x4               c:/devkitPro/PAlib/lib\libpa9.a(PA_Palette.o)

Memory Configuration

Name             Origin             Length             Attributes
rom              0x08000000         0x02000000
ewram            0x02000000         0x003ff000
dtcm             0x0b000000         0x00004000
vectors          0x01000000         0x00000100
itcm             0x01000100         0x00007f00
*default*        0x00000000         0xffffffff

Linker script and memory map

                0x01000000                __vectors_start = 0x1000000
                0x01000100                __itcm_start = 0x1000100
                0x023ff000                __ewram_end = 0x23ff000
                0x023ff000                __eheap_end = 0x23ff000
                0x0b000000                __dtcm_start = 0xb000000
                0x0b004000                __dtcm_top = 0xb004000
                0x0b003ff8                __irq_flags = (__dtcm_top - 0x8)
                0x0b003ffc                __irq_vector = (__dtcm_top - 0x4)
                0x0b003f00                __sp_svc = (__dtcm_top - 0x100)
                0x0b003e00                __sp_irq = (__sp_svc - 0x100)
                0x0b003d00                __sp_usr = (__sp_irq - 0x100)

.init           0x02000000      0x23c
                0x02000000                __text_start = .
 *(.init)
 .init          0x02000000      0x230 c:/devkitpro/devkitarm/bin/../lib/gcc/arm-eabi/4.4.3/../../../../arm-eabi/lib/thumb/ds_arm9_crt0.o
                0x02000000                _start
 .init          0x02000230        0x4 c:/devkitpro/devkitarm/bin/../lib/gcc/arm-eabi/4.4.3/thumb/crti.o
                0x02000230                _init
 .init          0x02000234        0x8 c:/devkitpro/devkitarm/bin/../lib/gcc/arm-eabi/4.4.3/thumb/crtn.o
                0x0200023c                . = ALIGN (0x4)

.plt
 *(.plt)

.text           0x02000240    0x46ea0
 *(EXCLUDE_FILE(*.itcm*) .text)
 .text          0x02000240        0x0 c:/devkitpro/devkitarm/bin/../lib/gcc/arm-eabi/4.4.3/../../../../arm-eabi/lib/thumb/ds_arm9_crt0.o
 .text          0x02000240        0x0 c:/devkitpro/devkitarm/bin/../lib/gcc/arm-eabi/4.4.3/thumb/crti.o
 .text          0x02000240       0x6c c:/devkitpro/devkitarm/bin/../lib/gcc/arm-eabi/4.4.3/thumb/crtbegin.o
 .text          0x020002ac        0x0 BG2_bas_alg_Map.o
 .text          0x020002ac        0x0 BG2_bas_alg_Pal.o
 .text          0x020002ac        0x0 BG2_bas_alg_Tiles.o
 .text          0x020002ac        0x0 BG2_bas_amazonia_Map.o
 .text          0x020002ac        0x0 BG2_bas_amazonia_Pal.o
 .text          0x020002ac        0x0 BG2_bas_amazonia_Tiles.o
 .text          0x020002ac        0x0 BG2_bas_arg_Map.o
 .text          0x020002ac        0x0 BG2_bas_arg_Pal.o
 .text          0x020002ac        0x0 BG2_bas_arg_Tiles.o
 .text          0x020002ac        0x0 BG2_bas_aus_Map.o
 .text          0x020002ac        0x0 BG2_bas_aus_Pal.o
 .text          0x020002ac        0x0 BG2_bas_aus_Tiles.o
 .text          0x020002ac        0x0 BG2_bas_baixada_Map.o
 .text          0x020002ac        0x0 BG2_bas_baixada_Pal.o
 .text          0x020002ac        0x0 BG2_bas_baixada_Tiles.o
 .text          0x020002ac        0x0 BG2_bas_beirario_Map.o
 .text          0x020002ac        0x0 BG2_bas_beirario_Pal.o
 .text          0x020002ac        0x0 BG2_bas_beirario_Tiles.o
 .text          0x020002ac        0x0 BG2_bas_bel_Map.o
 .text          0x020002ac        0x0 BG2_bas_bel_Pal.o
 .text          0x020002ac        0x0 BG2_bas_bel_Tiles.o
 .text          0x020002ac        0x0 BG2_bas_bih_Map.o
 .text          0x020002ac        0x0 BG2_bas_bih_Pal.o
 .text          0x020002ac        0x0 BG2_bas_bih_Tiles.o
 .text          0x020002ac        0x0 BG2_bas_bra_Map.o
 .text          0x020002ac        0x0 BG2_bas_bra_Pal.o
 .text          0x020002ac        0x0 BG2_bas_bra_Tiles.o
 .text          0x020002ac        0x0 BG2_bas_castelao_Map.o
 .text          0x020002ac        0x0 BG2_bas_castelao_Pal.o
 .text          0x020002ac        0x0 BG2_bas_castelao_Tiles.o
 .text          0x020002ac        0x0 BG2_bas_chi_Map.o
 .text          0x020002ac        0x0 BG2_bas_chi_Pal.o
 .text          0x020002ac        0x0 BG2_bas_chi_Tiles.o
 .text          0x020002ac        0x0 BG2_bas_civ_Map.o
 .text          0x020002ac        0x0 BG2_bas_civ_Pal.o
 .text          0x020002ac        0x0 BG2_bas_civ_Tiles.o
 .text          0x020002ac        0x0 BG2_bas_cmr_Map.o
 .text          0x020002ac        0x0 BG2_bas_cmr_Pal.o
 .text          0x020002ac        0x0 BG2_bas_cmr_Tiles.o
 .text          0x020002ac        0x0 BG2_bas_col_Map.o
 .text          0x020002ac        0x0 BG2_bas_col_Pal.o
 .text          0x020002ac        0x0 BG2_bas_col_Tiles.o
 .text          0x020002ac        0x0 BG2_bas_crc_Map.o
 .text          0x020002ac        0x0 BG2_bas_crc_Pal.o
 .text          0x020002ac        0x0 BG2_bas_crc_Tiles.o
 .text          0x020002ac        0x0 BG2_bas_cro_Map.o
 .text          0x020002ac        0x0 BG2_bas_cro_Pal.o
 .text          0x020002ac        0x0 BG2_bas_cro_Tiles.o
 .text          0x020002ac        0x0 BG2_bas_dasdunas_Map.o
 .text          0x020002ac        0x0 BG2_bas_dasdunas_Pal.o
 .text          0x020002ac        0x0 BG2_bas_dasdunas_Tiles.o
 .text          0x020002ac        0x0 BG2_bas_ecu_Map.o
 .text          0x020002ac        0x0 BG2_bas_ecu_Pal.o
 .text          0x020002ac        0x0 BG2_bas_ecu_Tiles.o
 .text          0x020002ac        0x0 BG2_bas_eng_Map.o
 .text          0x020002ac        0x0 BG2_bas_eng_Pal.o
 .text          0x020002ac        0x0 BG2_bas_eng_Tiles.o
 .text          0x020002ac        0x0 BG2_bas_esp_Map.o
 .text          0x020002ac        0x0 BG2_bas_esp_Pal.o
 .text          0x020002ac        0x0 BG2_bas_esp_Tiles.o
 .text          0x020002ac        0x0 BG2_bas_fontenova_Map.o
 .text          0x020002ac        0x0 BG2_bas_fontenova_Pal.o
 .text          0x020002ac        0x0 BG2_bas_fontenova_Tiles.o
 .text          0x020002ac        0x0 BG2_bas_fra_Map.o
 .text          0x020002ac        0x0 BG2_bas_fra_Pal.o
 .text          0x020002ac        0x0 BG2_bas_fra_Tiles.o
 .text          0x020002ac        0x0 BG2_bas_ger_Map.o
 .text          0x020002ac        0x0 BG2_bas_ger_Pal.o
 .text          0x020002ac        0x0 BG2_bas_ger_Tiles.o
 .text          0x020002ac        0x0 BG2_bas_gha_Map.o
 .text          0x020002ac        0x0 BG2_bas_gha_Pal.o
 .text          0x020002ac        0x0 BG2_bas_gha_Tiles.o
 .text          0x020002ac        0x0 BG2_bas_gre_Map.o
 .text          0x020002ac        0x0 BG2_bas_gre_Pal.o
 .text          0x020002ac        0x0 BG2_bas_gre_Tiles.o
 .text          0x020002ac        0x0 BG2_bas_hon_Map.o
 .text          0x020002ac        0x0 BG2_bas_hon_Pal.o
 .text          0x020002ac        0x0 BG2_bas_hon_Tiles.o
 .text          0x020002ac        0x0 BG2_bas_irn_Map.o
 .text          0x020002ac        0x0 BG2_bas_irn_Pal.o
 .text          0x020002ac        0x0 BG2_bas_irn_Tiles.o
 .text          0x020002ac        0x0 BG2_bas_ita_Map.o
 .text          0x020002ac        0x0 BG2_bas_ita_Pal.o
 .text          0x020002ac        0x0 BG2_bas_ita_Tiles.o
 .text          0x020002ac        0x0 BG2_bas_jpn_Map.o
 .text          0x020002ac        0x0 BG2_bas_jpn_Pal.o
 .text          0x020002ac        0x0 BG2_bas_jpn_Tiles.o
 .text          0x020002ac        0x0 BG2_bas_kor_Map.o
 .text          0x020002ac        0x0 BG2_bas_kor_Pal.o
 .text          0x020002ac        0x0 BG2_bas_kor_Tiles.o
 .text          0x020002ac        0x0 BG2_bas_maracana_Map.o
 .text          0x020002ac        0x0 BG2_bas_maracana_Pal.o
 .text          0x020002ac        0x0 BG2_bas_maracana_Tiles.o
 .text          0x020002ac        0x0 BG2_bas_mex_Map.o
 .text          0x020002ac        0x0 BG2_bas_mex_Pal.o
 .text          0x020002ac        0x0 BG2_bas_mex_Tiles.o
 .text          0x020002ac        0x0 BG2_bas_mineirao_Map.o
 .text          0x020002ac        0x0 BG2_bas_mineirao_Pal.o
 .text          0x020002ac        0x0 BG2_bas_mineirao_Tiles.o
 .text          0x020002ac        0x0 BG2_bas_nacional_Map.o
 .text          0x020002ac        0x0 BG2_bas_nacional_Pal.o
 .text          0x020002ac        0x0 BG2_bas_nacional_Tiles.o
 .text          0x020002ac        0x0 BG2_bas_ned_Map.o
 .text          0x020002ac        0x0 BG2_bas_ned_Pal.o
 .text          0x020002ac        0x0 BG2_bas_ned_Tiles.o
 .text          0x020002ac        0x0 BG2_bas_nga_Map.o
 .text          0x020002ac        0x0 BG2_bas_nga_Pal.o
 .text          0x020002ac        0x0 BG2_bas_nga_Tiles.o
 .text          0x020002ac        0x0 BG2_bas_pantanal_Map.o
 .text          0x020002ac        0x0 BG2_bas_pantanal_Pal.o
 .text          0x020002ac        0x0 BG2_bas_pantanal_Tiles.o
 .text          0x020002ac        0x0 BG2_bas_pernambuco_Map.o
 .text          0x020002ac        0x0 BG2_bas_pernambuco_Pal.o
 .text          0x020002ac        0x0 BG2_bas_pernambuco_Tiles.o
 .text          0x020002ac        0x0 BG2_bas_por_Map.o
 .text          0x020002ac        0x0 BG2_bas_por_Pal.o
 .text          0x020002ac        0x0 BG2_bas_por_Tiles.o
 .text          0x020002ac        0x0 BG2_bas_rus_Map.o
 .text          0x020002ac        0x0 BG2_bas_rus_Pal.o
 .text          0x020002ac        0x0 BG2_bas_rus_Tiles.o
 .text          0x020002ac        0x0 BG2_bas_saopaulo_Map.o
 .text          0x020002ac        0x0 BG2_bas_saopaulo_Pal.o
 .text          0x020002ac        0x0 BG2_bas_saopaulo_Tiles.o
 .text          0x020002ac        0x0 BG2_bas_selection_Map.o
 .text          0x020002ac        0x0 BG2_bas_selection_Pal.o
 .text          0x020002ac        0x0 BG2_bas_selection_Tiles.o
 .text          0x020002ac        0x0 BG2_bas_sui_Map.o
 .text          0x020002ac        0x0 BG2_bas_sui_Pal.o
 .text          0x020002ac        0x0 BG2_bas_sui_Tiles.o
 .text          0x020002ac        0x0 BG2_bas_uru_Map.o
 .text          0x020002ac        0x0 BG2_bas_uru_Pal.o
 .text          0x020002ac        0x0 BG2_bas_uru_Tiles.o
 .text          0x020002ac        0x0 BG2_bas_usa_Map.o
 .text          0x020002ac        0x0 BG2_bas_usa_Pal.o
 .text          0x020002ac        0x0 BG2_bas_usa_Tiles.o
 .text          0x020002ac        0x0 Groupe_Lettres_Pal.o
 .text          0x020002ac        0x0 Groupe_Lettres_Sprite.o
 .text          0x020002ac        0x0 Signe_Pal.o
 .text          0x020002ac        0x0 Signe_Sprite.o
 .text          0x020002ac        0x0 ballon_Pal.o
 .text          0x020002ac        0x0 ballon_Sprite.o
 .text          0x020002ac        0x0 flags_64_Pal.o
 .text          0x020002ac        0x0 flags_64_Sprite.o
 .text          0x020002ac        0x0 flags_Pal.o
 .text          0x020002ac        0x0 flags_Sprite.o
 .text          0x020002ac        0x0 icones_Pal.o
 .text          0x020002ac        0x0 icones_Sprite.o
 .text          0x020002ac        0x0 newfont_Map.o
 .text          0x020002ac        0x0 newfont_Pal.o
 .text          0x020002ac        0x0 newfont_Tiles.o
 .text          0x020002ac        0x0 nombres_32_Pal.o
 .text          0x020002ac        0x0 nombres_32_Sprite.o
 .text          0x020002ac        0x0 nombres_Pal.o
 .text          0x020002ac        0x0 nombres_Sprite.o
 .text          0x020002ac        0x0 quitter_Pal.o
 .text          0x020002ac        0x0 quitter_Sprite.o
 .text          0x020002ac        0x0 soundbank_bin.o
 .text          0x020002ac        0x0 BG3_bas_connexion_eng.o
 .text          0x020002ac        0x0 BG3_bas_connexion_esp.o
 .text          0x020002ac        0x0 BG3_bas_connexion_fra.o
 .text          0x020002ac        0x0 BG3_bas_connexion_ger.o
 .text          0x020002ac        0x0 BG3_bas_connexion_ita.o
 .text          0x020002ac        0x0 BG3_bas_deux.o
 .text          0x020002ac        0x0 BG3_bas_echec_eng.o
 .text          0x020002ac        0x0 BG3_bas_echec_esp.o
 .text          0x020002ac        0x0 BG3_bas_echec_fra.o
 .text          0x020002ac        0x0 BG3_bas_echec_ger.o
 .text          0x020002ac        0x0 BG3_bas_echec_ita.o
 .text          0x020002ac        0x0 BG3_bas_equipes_eng.o
 .text          0x020002ac        0x0 BG3_bas_equipes_esp.o
 .text          0x020002ac        0x0 BG3_bas_equipes_fra.o
 .text          0x020002ac        0x0 BG3_bas_equipes_ger.o
 .text          0x020002ac        0x0 BG3_bas_equipes_ita.o
 .text          0x020002ac        0x0 BG3_bas_groupes.o
 .text          0x020002ac        0x0 BG3_bas_menu_eng.o
 .text          0x020002ac        0x0 BG3_bas_menu_esp.o
 .text          0x020002ac        0x0 BG3_bas_menu_fra.o
 .text          0x020002ac        0x0 BG3_bas_menu_ger.o
 .text          0x020002ac        0x0 BG3_bas_menu_ita.o
 .text          0x020002ac        0x0 BG3_bas_penalty.o
 .text          0x020002ac        0x0 BG3_bas_quatres.o
 .text          0x020002ac        0x0 BG3_bas_reussi_eng.o
 .text          0x020002ac        0x0 BG3_bas_reussi_esp.o
 .text          0x020002ac        0x0 BG3_bas_reussi_fra.o
 .text          0x020002ac        0x0 BG3_bas_reussi_ger.o
 .text          0x020002ac        0x0 BG3_bas_reussi_ita.o
 .text          0x020002ac        0x0 BG3_bas_score.o
 .text          0x020002ac        0x0 BG3_bas_stades_eng.o
 .text          0x020002ac        0x0 BG3_bas_stades_esp.o
 .text          0x020002ac        0x0 BG3_bas_stades_fra.o
 .text          0x020002ac        0x0 BG3_bas_stades_ger.o
 .text          0x020002ac        0x0 BG3_bas_stades_ita.o
 .text          0x020002ac        0x0 BG3_bas_wifi_eng.o
 .text          0x020002ac        0x0 BG3_bas_wifi_esp.o
 .text          0x020002ac        0x0 BG3_bas_wifi_fra.o
 .text          0x020002ac        0x0 BG3_bas_wifi_ger.o
 .text          0x020002ac        0x0 BG3_bas_wifi_ita.o
 .text          0x020002ac        0x0 BG3_haut_demi_eng.o
 .text          0x020002ac        0x0 BG3_haut_demi_esp.o
 .text          0x020002ac        0x0 BG3_haut_demi_fra.o
 .text          0x020002ac        0x0 BG3_haut_demi_ger.o
 .text          0x020002ac        0x0 BG3_haut_demi_ita.o
 .text          0x020002ac        0x0 BG3_haut_finale_eng.o
 .text          0x020002ac        0x0 BG3_haut_finale_esp.o
 .text          0x020002ac        0x0 BG3_haut_finale_fra.o
 .text          0x020002ac        0x0 BG3_haut_finale_ger.o
 .text          0x020002ac        0x0 BG3_haut_finale_ita.o
 .text          0x020002ac        0x0 BG3_haut_groupes_eng.o
 .text          0x020002ac        0x0 BG3_haut_groupes_esp.o
 .text          0x020002ac        0x0 BG3_haut_groupes_fra.o
 .text          0x020002ac        0x0 BG3_haut_groupes_ger.o
 .text          0x020002ac        0x0 BG3_haut_groupes_ita.o
 .text          0x020002ac        0x0 BG3_haut_huitieme_eng.o
 .text          0x020002ac        0x0 BG3_haut_huitieme_esp.o
 .text          0x020002ac        0x0 BG3_haut_huitieme_fra.o
 .text          0x020002ac        0x0 BG3_haut_huitieme_ger.o
 .text          0x020002ac        0x0 BG3_haut_huitieme_ita.o
 .text          0x020002ac        0x0 BG3_haut_quart_eng.o
 .text          0x020002ac        0x0 BG3_haut_quart_esp.o
 .text          0x020002ac        0x0 BG3_haut_quart_fra.o
 .text          0x020002ac        0x0 BG3_haut_quart_ger.o
 .text          0x020002ac        0x0 BG3_haut_quart_ita.o
 .text          0x020002ac        0x0 BG3_haut_titre.o
 .text          0x020002ac        0x0 amazonia.o
 .text          0x020002ac        0x0 baixada.o
 .text          0x020002ac        0x0 beirario.o
 .text          0x020002ac        0x0 black.o
 .text          0x020002ac        0x0 castelao.o
 .text          0x020002ac        0x0 credits.o
 .text          0x020002ac        0x0 devkitpro.o
 .text          0x020002ac        0x0 dunas.o
 .text          0x020002ac        0x0 fontenova.o
 .text          0x020002ac        0x0 intro1.o
 .text          0x020002ac        0x0 intro2.o
 .text          0x020002ac        0x0 intro3.o
 .text          0x020002ac        0x0 licensed.o
 .text          0x020002ac        0x0 maracana.o
 .text          0x020002ac        0x0 mineirao.o
 .text          0x020002ac        0x0 nacional.o
 .text          0x020002ac        0x0 palib.o
 .text          0x020002ac        0x0 pantanal.o
 .text          0x020002ac        0x0 pernambuco.o
 .text          0x020002ac        0x0 saopaulo.o
 .text          0x020002ac      0x5f4 ky_geturl.o
                0x020002ac                ky_InitBuffer
                0x020002b8                ky_SaneLink
                0x020002d8                ky_Strndup
                0x02000304                ky_PredictBufferLength
                0x02000350                ky_FreeBuffer
                0x0200036c                ky_Get
                0x020003e0                ky_InitLink
                0x02000474                ky_Disconnect
                0x02000494                ky_FreeLink
                0x020004b0                ky_AutoConnectWifi
                0x02000500                ky_ConnectEx
                0x020005e4                ky_Connect
                0x020005f0                ky_Query
                0x020006e4                ky_GetUrlEx
                0x02000840                ky_QueryLink
                0x0200084c                ky_GetUrl
 .text          0x020008a0    0x1a228 main.o
                0x02000988                InitEquipes
                0x02001868                InitMatchs
                0x02003ad0                CalculStats
                0x02003c44                Determine_equipes_huitiemes
                0x020046e8                Determine_equipes_quarts
                0x02004d94                Determine_equipes_demi
                0x020050cc                Determine_equipes_finale
                0x02005354                animation_bouton
                0x020053e4                sauver_sauvegarde
                0x02005678                PA_DeleteText
                0x0200569c                tri_alphabetique
                0x020056fc                determine_codage
                0x02008690                Init_Bug
                0x0200885c                PA_RightOutputText
                0x02008888                PA_CenterOutputText
                0x020088bc                charger_sauvegarde
                0x02008b54                attente
                0x02008b80                attente_ou_touche
                0x02008bf0                fadeout
                0x02008c3c                fadein
                0x02008c84                charge_img_equipes
                0x02008d40                Equipes
                0x02009078                downloadfile
                0x02009228                InitStades
                0x0200971c                InitMatchsFinales
                0x02009fe4                NavigationMatchsFinales
                0x0200a788                NavigationFinales
                0x0200a9a4                InitMatchsDemi
                0x0200b26c                NavigationMatchsDemi
                0x0200ba28                NavigationDemi
                0x0200bc44                InitMatchsQuarts
                0x0200cc68                NavigationMatchsQuarts
                0x0200d420                NavigationQuarts
                0x0200d63c                InitMatchsHuitiemes
                0x0200e868                NavigationMatchsHuitiemes
                0x0200f1dc                NavigationHuitiemes
                0x0200f404                NavigationEquipes
                0x0200fc78                NavigationStades
                0x020104ec                InitMatchsGroupes
                0x020146a0                NavigationMatchsGroupes
                0x02014f10                NavigationGroupes
                0x0201512c                main
 .text          0x0201aac8        0x0 BG2_bas_alg.o
 .text          0x0201aac8        0x0 BG2_bas_amazonia.o
 .text          0x0201aac8        0x0 BG2_bas_arg.o
 .text          0x0201aac8        0x0 BG2_bas_aus.o
 .text          0x0201aac8        0x0 BG2_bas_baixada.o
 .text          0x0201aac8        0x0 BG2_bas_beirario.o
 .text          0x0201aac8        0x0 BG2_bas_bel.o
 .text          0x0201aac8        0x0 BG2_bas_bih.o
 .text          0x0201aac8        0x0 BG2_bas_bra.o
 .text          0x0201aac8        0x0 BG2_bas_castelao.o
 .text          0x0201aac8        0x0 BG2_bas_chi.o
 .text          0x0201aac8        0x0 BG2_bas_civ.o
 .text          0x0201aac8        0x0 BG2_bas_cmr.o
 .text          0x0201aac8        0x0 BG2_bas_col.o
 .text          0x0201aac8        0x0 BG2_bas_crc.o
 .text          0x0201aac8        0x0 BG2_bas_cro.o
 .text          0x0201aac8        0x0 BG2_bas_dasdunas.o
 .text          0x0201aac8        0x0 BG2_bas_ecu.o
 .text          0x0201aac8        0x0 BG2_bas_eng.o
 .text          0x0201aac8        0x0 BG2_bas_esp.o
 .text          0x0201aac8        0x0 BG2_bas_fontenova.o
 .text          0x0201aac8        0x0 BG2_bas_fra.o
 .text          0x0201aac8        0x0 BG2_bas_ger.o
 .text          0x0201aac8        0x0 BG2_bas_gha.o
 .text          0x0201aac8        0x0 BG2_bas_gre.o
 .text          0x0201aac8        0x0 BG2_bas_hon.o
 .text          0x0201aac8        0x0 BG2_bas_irn.o
 .text          0x0201aac8        0x0 BG2_bas_ita.o
 .text          0x0201aac8        0x0 BG2_bas_jpn.o
 .text          0x0201aac8        0x0 BG2_bas_kor.o
 .text          0x0201aac8        0x0 BG2_bas_maracana.o
 .text          0x0201aac8        0x0 BG2_bas_mex.o
 .text          0x0201aac8        0x0 BG2_bas_mineirao.o
 .text          0x0201aac8        0x0 BG2_bas_nacional.o
 .text          0x0201aac8        0x0 BG2_bas_ned.o
 .text          0x0201aac8        0x0 BG2_bas_nga.o
 .text          0x0201aac8        0x0 BG2_bas_pantanal.o
 .text          0x0201aac8        0x0 BG2_bas_pernambuco.o
 .text          0x0201aac8        0x0 BG2_bas_por.o
 .text          0x0201aac8        0x0 BG2_bas_rus.o
 .text          0x0201aac8        0x0 BG2_bas_saopaulo.o
 .text          0x0201aac8        0x0 BG2_bas_selection.o
 .text          0x0201aac8        0x0 BG2_bas_sui.o
 .text          0x0201aac8        0x0 BG2_bas_uru.o
 .text          0x0201aac8        0x0 BG2_bas_usa.o
 .text          0x0201aac8        0x0 newfont.o
 .text          0x0201aac8      0x6d8 c:/devkitPro/PAlib/lib\libpa9.a(PA_BgTiles.o)
                0x0201aac8                PA_ReLoadBgTiles
                0x0201ab10                PA_InitBg
                0x0201abf8                PA_DeleteTiles
                0x0201ac90                PA_DeleteMap
                0x0201ad10                PA_LoadBgMap
                0x0201ae5c                PA_LoadBgTilesEx
                0x0201b078                PA_ResetBgSysScreen
                0x0201b190                PA_ResetBgSys
 .text          0x0201b1a0       0xbc c:/devkitPro/PAlib/lib\libpa9.a(PA.o)
                0x0201b1a0                PA_SetBrightness
                0x0201b1e0                PA_Nothing
                0x0201b1e4                PA_CheckLid
 .text          0x0201b25c      0x2fc c:/devkitPro/PAlib/lib\libpa9.a(PA_Draw8bit.o)
                0x0201b25c                PA_8bitSwapBuffer
                0x0201b2c0                PA_Default8bitInit
                0x0201b380                PA_Init8bitDblBuffer
                0x0201b430                PA_InitBig8bitBg
                0x0201b4c4                PA_Init8bitBg
 .text          0x0201b558      0x2c4 c:/devkitPro/PAlib/lib\libpa9.a(PA_Draw.o)
                0x0201b558                PA_LoadBmpToBuffer
 .text          0x0201b81c       0x84 c:/devkitPro/PAlib/lib\libpa9.a(PA_Error.o)
                0x0201b81c                PA_Error
                0x0201b83c                _PA_Assert
 .text          0x0201b8a0      0x3e0 c:/devkitPro/PAlib/lib\libpa9.a(PA_Gif.o)
                0x0201b8a0                CopyLine
                0x0201b8b4                CopyLine2
                0x0201b8d4                DGifGetLineByte
                0x0201b94c                readFunc
                0x0201b964                DecodeGif
 .text          0x0201bc80      0x2b0 c:/devkitPro/PAlib/lib\libpa9.a(PA_Inits.o)
                0x0201bc80                PA_Init2D
                0x0201bce0                PA_Init
 .text          0x0201bf30       0x78 c:/devkitPro/PAlib/lib\libpa9.a(PA_Interrupt.o)
                0x0201bf30                PA_VBLCountersReset
                0x0201bf50                PA_vblFunc
 .text          0x0201bfa8      0x210 c:/devkitPro/PAlib/lib\libpa9.a(PA_Keys.o)
                0x0201bfa8                PA_UpdateStylus
                0x0201c06c                PA_UpdatePad
 .text          0x0201c1b8      0x15c c:/devkitPro/PAlib/lib\libpa9.a(PA_Math.o)
                0x0201c1b8                PA_AdjustAngle
 .text          0x0201c314      0x840 c:/devkitPro/PAlib/lib\libpa9.a(PA_NewBg.o)
                0x0201c314                PA_Add16cFont
                0x0201c364                PA_AddBitmapFont
                0x0201c3b4                PA_LoadKeyboard
                0x0201c508                PA_LoadText
                0x0201c638                PA_LoadBackground
 .text          0x0201cb54      0x25c c:/devkitPro/PAlib/lib\libpa9.a(PA_Palette.o)
                0x0201cb54                PA_LoadSpriteExtPal
                0x0201cc14                PA_InitSpriteExtPal
                0x0201cc70                PA_LoadBgPalN
                0x0201cd48                PA_InitBgExtPal
 .text          0x0201cdb0      0x4f4 c:/devkitPro/PAlib/lib\libpa9.a(PA_Reco.o)
                0x0201cdb0                PA_StylusLine
                0x0201cf14                PA_AnalyzeShape
                0x0201d220                PA_CheckLetter
 .text          0x0201d2a4       0xc4 c:/devkitPro/PAlib/lib\libpa9.a(PA_RTC.o)
                0x0201d2a4                PA_UpdateUserInfo
                0x0201d328                PA_UpdateRTC
 .text          0x0201d368      0x3e8 c:/devkitPro/PAlib/lib\libpa9.a(PA_SpriteAnim.o)
                0x0201d368                PA_StartSpriteAnimEx
                0x0201d538                PA_UpdateSpriteAnims
 .text          0x0201d750      0x72c c:/devkitPro/PAlib/lib\libpa9.a(PA_Sprite.o)
                0x0201d750                PA_InitSpriteExtPrio
                0x0201d784                PA_ResetSpriteSysScreen
                0x0201d8cc                PA_ResetSpriteSys
                0x0201d8e8                PA_DeleteGfx
                0x0201dab4                PA_DeleteSprite
                0x0201db08                PA_InitSpriteDraw
                0x0201db6c                PA_UpdateOAM
                0x0201dcc8                PA_UpdateSpriteVBL
                0x0201dd00                PA_CreateGfx
 .text          0x0201de7c      0x1a8 c:/devkitPro/PAlib/lib\libpa9.a(PA_Stuff.o)
                0x0201de7c                PA_SetVideoMode
                0x0201dea0                PA_Locate
 .text          0x0201e024     0x11cc c:/devkitPro/PAlib/lib\libpa9.a(PA_Text8bit.o)
                0x0201e024                NoLetter
                0x0201e028                pa_8bitTextDecompress
                0x0201e0a4                PA_8bitText
                0x0201e154                PA_CenterSmartText
                0x0201e1b8                Letter
                0x0201e5b0                RotLetter2
                0x0201e9d4                RotLetter
                0x0201edf8                TranspLetter
 .text          0x0201f1f0      0x528 c:/devkitPro/PAlib/lib\libpa9.a(PA_TextBits.o)
                0x0201f1f0                PA_DoAlign
                0x0201f39c                PA_DoLetterPos
 .text          0x0201f718      0xaa0 c:/devkitPro/PAlib/lib\libpa9.a(PA_Text.o)
                0x0201f718                PA_OutputSimpleText
                0x0201f800                PA_ClearTextBg
                0x0201f8a0                PA_OutputText
                0x02020040                PA_CreateTextPal
                0x020200f0                PA_LoadDefaultText
 .text          0x020201b8      0xdb8 c:/devkitPro/PAlib/lib\libpa9.a(dgif_lib.o)
                0x020201b8                DGifOpenFileName
                0x020201bc                DGifOpenFileHandle
                0x020205fc                DGifGetCodeNext
                0x0202068c                DGifGetLZCodes
                0x020206fc                DGifGetCode
                0x02020720                DGifGetPixel
                0x0202078c                DGifGetLine
                0x020207f4                DGifGetExtensionNext
                0x02020880                DGifGetExtension
                0x02020938                DGifGetRecordType
                0x020209c0                DGifCloseFile
                0x02020a34                DGifGetScreenDesc
                0x02020b54                DGifGetImageDesc
                0x02020db0                DGifSlurp
                0x02020eb0                DGifOpen
 .text          0x02020f70      0x4b8 c:/devkitPro/PAlib/lib\libpa9.a(gifalloc.o)
                0x02020f70                BitSize
                0x02020f88                ApplyTranslation
                0x02020fac                MakeExtension
                0x02020fb0                FreeExtension
                0x02020ff8                FreeMapObject
                0x02021010                FreeSavedImages
                0x02021074                FreeLastSavedImage
                0x020210b4                AddExtensionBlock
                0x02021114                MakeMapObject
                0x0202117c                MakeSavedImage
                0x0202125c                UnionColorMap
 .text          0x02021428       0x58 c:/devkitPro/PAlib/lib\libpa9.a(gif_err.o)
                0x02021428                GifLastError
                0x02021438                PrintGifError
 .text          0x02021480        0x0 c:/devkitPro/PAlib/lib\libpa9.a(PA_TiledFont.o)
 .text          0x02021480        0x0 c:/devkitPro/PAlib/lib\libpa9.a(PA_BmpFont0.o)
 .text          0x02021480        0x0 c:/devkitPro/PAlib/lib\libpa9.a(PA_BmpFont1.o)
 .text          0x02021480        0x0 c:/devkitPro/PAlib/lib\libpa9.a(PA_BmpFont2.o)
 .text          0x02021480        0x0 c:/devkitPro/PAlib/lib\libpa9.a(PA_BmpFont3.o)
 .text          0x02021480        0x0 c:/devkitPro/PAlib/lib\libpa9.a(PA_BmpFont4.o)
 .text          0x02021480        0x0 c:/devkitPro/PAlib/lib\libpa9.a(PA_TiledFont_Map.bin.o)
 .text          0x02021480        0x0 c:/devkitPro/PAlib/lib\libpa9.a(PA_TiledFont_Pal.bin.o)
 .text          0x02021480        0x0 c:/devkitPro/PAlib/lib\libpa9.a(PA_TiledFont_Tiles.bin.o)
 .text          0x02021480        0x0 c:/devkitPro/PAlib/lib\libpa9.a(PA_BmpFont0_Map.bin.o)
 .text          0x02021480        0x0 c:/devkitPro/PAlib/lib\libpa9.a(PA_BmpFont0_Sizes.bin.o)
 .text          0x02021480        0x0 c:/devkitPro/PAlib/lib\libpa9.a(PA_BmpFont0_Tiles.bin.o)
 .text          0x02021480        0x0 c:/devkitPro/PAlib/lib\libpa9.a(PA_BmpFont1_Map.bin.o)
 .text          0x02021480        0x0 c:/devkitPro/PAlib/lib\libpa9.a(PA_BmpFont1_Sizes.bin.o)
 .text          0x02021480        0x0 c:/devkitPro/PAlib/lib\libpa9.a(PA_BmpFont1_Tiles.bin.o)
 .text          0x02021480        0x0 c:/devkitPro/PAlib/lib\libpa9.a(PA_BmpFont2_Map.bin.o)
 .text          0x02021480        0x0 c:/devkitPro/PAlib/lib\libpa9.a(PA_BmpFont2_Sizes.bin.o)
 .text          0x02021480        0x0 c:/devkitPro/PAlib/lib\libpa9.a(PA_BmpFont2_Tiles.bin.o)
 .text          0x02021480        0x0 c:/devkitPro/PAlib/lib\libpa9.a(PA_BmpFont3_Map.bin.o)
 .text          0x02021480        0x0 c:/devkitPro/PAlib/lib\libpa9.a(PA_BmpFont3_Sizes.bin.o)
 .text          0x02021480        0x0 c:/devkitPro/PAlib/lib\libpa9.a(PA_BmpFont3_Tiles.bin.o)
 .text          0x02021480        0x0 c:/devkitPro/PAlib/lib\libpa9.a(PA_BmpFont4_Map.bin.o)
 .text          0x02021480        0x0 c:/devkitPro/PAlib/lib\libpa9.a(PA_BmpFont4_Sizes.bin.o)
 .text          0x02021480        0x0 c:/devkitPro/PAlib/lib\libpa9.a(PA_BmpFont4_Tiles.bin.o)
 .text          0x02021480      0x6fc c:/devkitPro/PAlib/lib\libpa9.a(PA_16c.o)
                0x02021480                PA_16c8X8Color
                0x02021600                PA_16cErase
                0x0202163c                PA_16cClearZone
                0x020217d0                pa_16cTextDecompress
                0x0202185c                PA_16cText
                0x020219dc                PA_Init16cBgEx
 .text          0x02021b7c      0x350 c:/devkitPro/PAlib/lib\libpa9.a(PA_BgEasy.o)
                0x02021b7c                PA_StoreEasyBgInfos
                0x02021bb8                PA_EasyBgLoadEx
                0x02021dac                PA_EasyBgScrollY
                0x02021e3c                PA_EasyBgScrollX
 .text          0x02021ecc      0xeb8 c:/devkitPro/PAlib/lib\libpa9.a(PA_BgLargeMap.o)
                0x02021ecc                PA_LargeScrollXN
                0x020220b8                PA_LargeScrollYN
                0x020222a4                PA_InfLargeScrollXN
                0x0202250c                PA_InfLargeScrollYN
                0x0202275c                PA_UpdateTileEngineX
                0x020228c0                PA_UpdateTileEngineY
                0x02022a1c                PA_InfTilesScrollX
                0x02022ab0                PA_InfTilesScrollY
                0x02022b40                PA_InitLargeBg
 .text          0x02022d84      0x158 c:/devkitPro/PAlib/lib\libpa9.a(PA_BgRot.o)
                0x02022d84                PA_LoadRotBgMap
 .text          0x02022edc       0x50 c:/devkitPro/PAlib/lib\libpa9.a(PA_Fifo.o)
                0x02022edc                PA_FifoMsgHandler
                0x02022f18                PA_InitFifo
 .text          0x02022f2c      0x640 c:/devkitPro/PAlib/lib\libpa9.a(PA_Keyboard.o)
                0x02022f2c                PA_ReloadKeyboardCol
                0x0202300c                PA_ChangeKeyboardType
                0x020231a4                PA_SetLetterPal
                0x020232dc                PA_CheckKeyboard
                0x02023400                PA_LoadDefaultKeyboard
 .text          0x0202356c      0x20c c:/devkitPro/PAlib/lib\libpa9.a(PA_PaletteEx.o)
                0x0202356c                PA_CreatePalBright
                0x02023630                PA_CreatePalTransition
                0x020236a8                PA_SetBgPalNCol
                0x02023700                PA_SetSpritePalCol
                0x02023750                PA_3DSetSpritePalCol
 .text          0x02023778        0x0 c:/devkitPro/PAlib/lib\libpa9.a(keyboard.map.o)
 .text          0x02023778        0x0 c:/devkitPro/PAlib/lib\libpa9.a(keyboard.pal.o)
 .text          0x02023778        0x0 c:/devkitPro/PAlib/lib\libpa9.a(keyboard.raw.o)
 .text          0x02023778      0x2fc c:/devkitPro/libnds/lib\libfat.a(libfat.o)
                0x02023778                fatGetVolumeLabel
                0x02023844                fatUnmount
                0x0202387c                fatMount
                0x02023904                fatInit
                0x02023a54                fatInitDefault
                0x02023a60                fatMountSimple
 .text          0x02023a74      0x4c4 c:/devkitPro/libnds/lib\libfat.a(partition.o)
                0x02023a74                _FAT_partition_getPartitionFromPath
                0x02023a84                _FAT_partition_destructor
                0x02023aa8                FindFirstValidPartition
                0x02023c64                _FAT_partition_constructor
 .text          0x02023f38      0x520 c:/devkitPro/libnds/lib\libfat.a(cache.o)
                0x02024040                _FAT_cache_flush
                0x02024090                _FAT_cache_invalidate
                0x020240bc                _FAT_cache_writeSectors
                0x020241ac                _FAT_cache_writePartialSector
                0x020241f8                _FAT_cache_writeLittleEndianValue
                0x02024240                _FAT_cache_readPartialSector
                0x0202427c                _FAT_cache_readLittleEndianValue
                0x020242d4                _FAT_cache_readSectors
                0x02024330                _FAT_cache_eraseWritePartialSector
                0x0202438c                _FAT_cache_destructor
                0x020243c0                _FAT_cache_constructor
 .text          0x02024458     0x1394 c:/devkitPro/libnds/lib\libfat.a(directory.o)
                0x020244c8                _FAT_directory_entryGetCluster
                0x020244f0                _FAT_directory_entryStat
                0x020245ac                _FAT_directory_getRootEntry
                0x0202471c                _FAT_directory_removeEntry
                0x020247f0                _FAT_directory_getVolumeLabel
                0x02024958                _FAT_directory_entryFromPosition
                0x02024a9c                _FAT_directory_getNextEntry
                0x02024cbc                _FAT_directory_getFirstEntry
                0x02024d74                _FAT_directory_addEntry
                0x020255d8                _FAT_directory_entryFromPath
                0x020257b0                _FAT_directory_chdir
 .text          0x020257ec        0x0 c:/devkitPro/libnds/lib\libfat.a(disc.o)
 .text          0x020257ec      0x7b0 c:/devkitPro/libnds/lib\libfat.a(fatdir.o)
                0x020257ec                _FAT_link_r
                0x020257f8                _FAT_dirclose_r
                0x02025808                _FAT_dirnext_r
                0x0202586c                _FAT_dirreset_r
                0x020258a0                _FAT_stat_r
                0x02025920                _FAT_diropen_r
                0x020259c8                _FAT_statvfs_r
                0x02025a24                _FAT_mkdir_r
                0x02025c68                _FAT_rename_r
                0x02025de4                _FAT_chdir_r
                0x02025e40                _FAT_unlink_r
 .text          0x02025f9c     0x1110 c:/devkitPro/libnds/lib\libfat.a(fatfile.o)
                0x02026208                _FAT_ftruncate_r
                0x02026344                _FAT_seek_r
                0x02026480                _FAT_fstat_r
                0x020264fc                _FAT_write_r
                0x0202694c                _FAT_read_r
                0x02026c50                _FAT_syncToDisc
                0x02026d34                _FAT_fsync_r
                0x02026d5c                _FAT_close_r
                0x02026db8                _FAT_open_r
 .text          0x020270ac      0x420 c:/devkitPro/libnds/lib\libfat.a(file_allocation_table.o)
                0x020270ac                _FAT_fat_nextCluster
                0x02027190                _FAT_fat_freeClusterCount
                0x020271bc                _FAT_fat_lastCluster
                0x02027304                _FAT_fat_clearLinks
                0x0202735c                _FAT_fat_trimChain
                0x020273cc                _FAT_fat_linkFreeCluster
                0x0202745c                _FAT_fat_linkFreeClusterCleared
 .text          0x020274cc       0xc8 c:/devkitPro/libnds/lib\libfat.a(filetime.o)
                0x020274cc                _FAT_filetime_to_time_t
                0x02027504                _FAT_filetime_getDateFromRTC
                0x0202754c                _FAT_filetime_getTimeFromRTC
 .text          0x02027594      0x354 c:/devkitPro/libnds/lib\libnds9.a(gurumeditation.o)
                0x02027594                ARMShift
                0x020275dc                getExceptionAddress
                0x020277b0                defaultExceptionHandler
                0x020277c0                guruMeditationDump
 .text          0x020278e8       0xfc c:/devkitPro/libnds/lib\libnds9.a(keys.o)
                0x020278e8                scanKeys
                0x02027958                keysHeld
                0x02027964                keysDown
                0x02027974                keysDownRepeat
                0x02027984                keysSetRepeat
                0x0202799c                keysUp
                0x020279ac                keysCurrent
 .text          0x020279e4       0xdc c:/devkitPro/libnds/lib\libnds9.a(system.o)
                0x020279e4                ledBlink
                0x020279f8                powerOff
                0x02027a24                powerOn
                0x02027a54                systemSleep
                0x02027a6c                powerValueHandler
                0x02027a7c                systemMsgHandler
 .text          0x02027ac0       0x4c c:/devkitPro/libnds/lib\libnds9.a(touch.o)
                0x02027ac0                touchRead
                0x02027ae8                touchReadXY
 .text          0x02027b0c       0x90 c:/devkitPro/libnds/lib\libnds9.a(video.o)
                0x02027b0c                vramSetMainBanks
                0x02027b50                vramRestoreMainBanks
                0x02027b5c                setBrightness
 .text          0x02027b9c      0x290 c:/devkitPro/libnds/lib\libnds9.a(dldi.o)
                0x02027b9c                dldiGetInternal
                0x02027bd4                dldiIsValid
                0x02027c04                dldiFree
                0x02027c10                dldiFixDriverAddresses
                0x02027d34                dldiLoadFromFile
 .text          0x02027e2c      0x10c c:/devkitPro/libnds/lib\libnds9.a(initSystem.o)
                0x02027e2c                initSystem
 .text          0x02027f38      0xd24 c:/devkitPro/libnds/lib\libnds9.a(fifosystem.o)
                0x020280c8                fifoSendAddress
                0x02028100                fifoSendValue32
                0x02028148                fifoGetAddress
                0x020281b8                fifoSetAddressHandler
                0x0202822c                fifoGetValue32
                0x0202829c                fifoSetValue32Handler
                0x02028310                fifoCheckAddress
                0x02028334                fifoCheckDatamsg
                0x02028358                fifoCheckValue32
                0x02028420                fifoInit
                0x020285e0                fifoGetDatamsg
                0x02028b48                fifoSetDatamsgHandler
                0x02028bec                fifoSendDatamsg
 .text          0x02028c5c      0x1cc c:/devkitPro/libnds/lib\libnds9.a(interrupts.o)
                0x02028c5c                irqDummy
                0x02028c60                irqSet
                0x02028cc4                irqInit
                0x02028d10                irqInitHandler
                0x02028d40                irqEnable
                0x02028da0                irqDisable
                0x02028e00                irqClear
 .text          0x02028e28       0x40 c:/devkitPro/libnds/lib\libnds9.a(libnds_exit.o)
                0x02028e28                systemErrorExit
                0x02028e2c                __libnds_exit
 .text          0x02028e68       0x70 c:/devkitPro/libnds/lib\libnds9.a(dcache.o)
                0x02028e68                DC_FlushAll
                0x02028e94                DC_FlushRange
                0x02028eb0                DC_InvalidateAll
                0x02028ebc                DC_InvalidateRange
 .text          0x02028ed8       0xd4 c:/devkitPro/libnds/lib\libnds9.a(exceptionHandler.o)
                0x02028ed8                getCPSR
                0x02028ee0                enterException
                0x02028f4c                exceptionC
                0x02028f50                exceptionStack
                0x02028f54                exceptionRegisters
 *fill*         0x02028fac       0x14 ff
 .text          0x02028fc0     0x8000 c:/devkitPro/libnds/lib\libnds9.a(dldi_stub.o)
                0x02028fc0                _io_dldi_stub
 .text          0x02030fc0      0x1b4 c:/devkitPro/libnds/lib\libnds9.a(mpu_setup.o)
                0x02030fc0                __libnds_mpu_setup
                0x02031100                memCached
                0x02031118                memUncached
 *fill*         0x02031174        0xc ff
 .text          0x02031180       0x70 c:/devkitPro/libnds/lib\libnds9.a(biosCalls.o)
                0x02031180                swiDelay
                0x02031184                swiIntrWait
                0x02031188                swiWaitForVBlank
                0x0203118c                swiSleep
                0x02031190                swiChangeSoundBias
                0x02031194                swiDivide
                0x02031198                swiRemainder
                0x0203119e                swiDivMod
                0x020311aa                swiCopy
                0x020311ae                swiFastCopy
                0x020311b2                swiSqrt
                0x020311b6                swiCRC16
                0x020311ba                swiIsDebugger
                0x020311be                swiUnpackBits
                0x020311c2                swiDecompressLZSSWram
                0x020311c6                swiDecompressLZSSVram
                0x020311ca                swiDecompressHuffman
                0x020311ce                swiDecompressRLEWram
                0x020311d2                swiDecompressRLEVram
                0x020311d6                swiWaitForIRQ
                0x020311da                swiDecodeDelta8
                0x020311de                swiDecodeDelta16
                0x020311e2                swiSetHaltCR
 .text          0x020311f0        0x0 c:/devkitPro/libnds/lib\libnds9.a(interruptDispatcher.o)
 .text          0x020311f0       0x30 c:/devkitPro/libnds/lib\libnds9.a(swiSoftReset.o)
                0x020311f0                swiSoftReset
 .text          0x02031220      0xa68 c:/devkitPro/libnds/lib\libnds9.a(console.o)
                0x02031220                consoleGetDefault
                0x02031228                consoleSelect
                0x020312dc                consolePrintChar
                0x02031494                consoleLoadFont
                0x0203172c                consoleSetFont
                0x0203174c                consoleSetWindow
                0x02031770                consoleClear
                0x02031780                consoleDebugInit
                0x020317cc                consoleInit
                0x02031944                consoleDemoInit
                0x02031984                con_write
                0x02031c58                nocash_write
 .text          0x02031c88       0x28 c:/devkitPro/libnds/lib\libnds9.a(exceptions.o)
                0x02031c88                setExceptionHandler
 .text          0x02031cb0       0x98 c:/devkitPro/libnds/lib\libnds9.a(debugprint.o)
                0x02031cb0                nocashMessage
 .text          0x02031d48        0x0 c:/devkitPro/libnds/lib\libnds9.a(default_font.bin.o)
 .text          0x02031d48      0x358 c:/devkitPro/libnds/lib\libnds9.a(background.o)
                0x02031d48                bgIsText
                0x02031d54                checkIfText
                0x02031da4                bgUpdate
                0x02031ec0                bgInitSub_call
                0x02031fd0                bgInit_call
 .text          0x020320a0      0x284 c:/devkitPro/libnds/lib\libnds9.a(trig.o)
                0x020320a0                sinLutLookup
                0x020320dc                sinLerp
                0x02032168                cosLerp
                0x02032180                tanLutLookup
                0x020321b8                tanLerp
                0x02032258                arcSinComp
                0x02032288                asinLerp
                0x0203230c                acosLerp
 .text          0x02032324      0x1f4 c:/devkitPro/libnds/lib\libdswifi9.a(sgIP_Hub.o)
                0x02032324                sgIP_Hub_Init
                0x02032338                sgIP_Hub_AddProtocolInterface
                0x02032374                sgIP_Hub_AddHardwareInterface
                0x020323b0                sgIP_Hub_RemoveProtocolInterface
                0x020323d0                sgIP_Hub_RemoveHardwareInterface
                0x020323f0                sgIP_Hub_IPMaxMessageSize
                0x020323f8                sgIP_Hub_GetCompatibleIP
                0x02032410                sgIP_Hub_GetDefaultInterface
                0x02032424                htons
                0x02032430                htonl
                0x02032450                sgIP_Hub_SendRawPacket
                0x02032474                sgIP_Hub_SendProtocolPacket
                0x020324bc                sgIP_Hub_ReceiveHardwarePacket
 .text          0x02032518      0x2d8 c:/devkitPro/libnds/lib\libdswifi9.a(sgIP_memblock.o)
                0x02032518                sgIP_memblock_Init
                0x0203251c                sgIP_memblock_exposeheader
                0x0203254c                sgIP_memblock_IPChecksum
                0x0203266c                sgIP_memblock_CopyBlock
                0x02032670                sgIP_memblock_CopyFromLinear
                0x020326e4                sgIP_memblock_CopyToLinear
                0x02032758                sgIP_memblock_free
                0x02032784                sgIP_memblock_trimsize
                0x020327c0                sgIP_memblock_allocHW
                0x020327e4                sgIP_memblock_alloc
 .text          0x020327f0      0xbb4 c:/devkitPro/libnds/lib\libdswifi9.a(sgIP_sockets.o)
                0x020327f0                sgIP_sockets_Init
                0x02032810                setsockopt
                0x02032814                getsockopt
                0x02032818                select
                0x02032adc                gethostbyname
                0x02032ae4                getsockname
                0x02032b84                getpeername
                0x02032c10                ioctl
                0x02032cb4                kill_socket
                0x02032cec                spawn_socket
                0x02032d40                shutdown
                0x02032d8c                accept
                0x02032e6c                listen
                0x02032ebc                recvfrom
                0x02032f94                sendto
                0x02033004                recv
                0x020330ac                send
                0x02033154                connect
                0x02033264                bind
                0x020332c4                closesocket
                0x0203331c                socket
 .text          0x020333a4     0x1560 c:/devkitPro/libnds/lib\libdswifi9.a(wifi_arm9.o)
                0x020333a4                sgIP_IntrWaitEvent
                0x020333a8                wHeapAlloc
                0x02033470                wHeapFree
                0x02033490                sgIP_malloc
                0x02033498                sgIP_free
                0x020334b8                ethhdr_print
                0x020334bc                erasemem
                0x020334d0                Wifi_CopyMacAddr
                0x020334e0                Wifi_CmpMacAddr
                0x02033504                Wifi_TxBufferWordsAvailable
                0x02033528                Wifi_TxBufferWrite
                0x0203358c                Wifi_RxRawReadPacket
                0x020335fc                Wifi_RxReadOffset
                0x02033628                Wifi_RawTxFrame
                0x02033790                Wifi_RawSetPacketHandler
                0x0203379c                Wifi_SetSyncHandler
                0x020337a8                Wifi_DisableWifi
                0x020337c4                Wifi_EnableWifi
                0x020337e0                Wifi_SetPromiscuousMode
                0x02033810                Wifi_ScanMode
                0x0203382c                Wifi_SetChannel
                0x02033854                Wifi_GetNumAP
                0x0203388c                Wifi_AutoConnect
                0x020338b4                Wifi_DisconnectAP
                0x020338e0                Wifi_Interface_Init
                0x02033928                Wifi_CheckInit
                0x0203394c                Wifi_GetIP
                0x02033964                Wifi_GetIPInfo
                0x0203399c                Wifi_SetDHCP
                0x020339a0                Wifi_GetStats
                0x020339c4                arm9_synctoarm7
                0x020339d0                Wifi_GetData
                0x02033a3c                Wifi_SetIP
                0x02033a60                Wifi_Update
                0x02033d44                Wifi_Sync
                0x02033d60                wifiValue32Handler
                0x02033d6c                Wifi_Timer
                0x02033d7c                Timer_50ms
                0x02033d88                Wifi_TransmitFunction
                0x020340e4                Wifi_GetAPData
                0x02034198                Wifi_FindMatchingAP
                0x020342d8                Wifi_AssocStatus
                0x02034664                Wifi_ConnectAP
                0x0203477c                wHeapAllocInit
                0x020347a4                Wifi_Init
                0x0203483c                Wifi_InitDefault
 .text          0x02034904       0x5c c:/devkitPro/libnds/lib\libdswifi9.a(spinlock.o)
                0x02034904                SLasm_Acquire
                0x02034938                SLasm_Release
 .text          0x02034960       0xa0 c:/devkitPro/libnds/lib\libdswifi9.a(sgIP.o)
                0x02034960                sgIP_Timer
                0x020349c8                sgIP_Init
 .text          0x02034a00      0x668 c:/devkitPro/libnds/lib\libdswifi9.a(sgIP_ARP.o)
                0x02034a00                sgIP_FindArpSlot
                0x02034a34                sgIP_is_broadcast_address
                0x02034a40                sgIP_ARP_Check_isok
                0x02034a44                sgIP_ARP_Init
                0x02034a64                sgIP_ARP_FlushInterface
                0x02034a98                sgIP_ARP_ProcessIPFrame
                0x02034a9c                sgIP_ARP_SendARPRequest
                0x02034b84                sgIP_ARP_SendGratARP
                0x02034c6c                sgIP_ARP_SendARPResponse
                0x02034d4c                sgIP_ARP_Timer100ms
                0x02034dc0                sgIP_GetArpSlot
                0x02034e18                sgIP_ARP_SendProtocolFrame
                0x02034f50                sgIP_ARP_ProcessARPFrame
 .text          0x02035068      0x9f8 c:/devkitPro/libnds/lib\libdswifi9.a(sgIP_DHCP.o)
                0x02035068                sgIP_DHCP_IsDhcpIp
                0x02035078                sethostname
                0x020350f4                gethostname
                0x02035134                sgIP_DHCP_SetHostName
                0x02035150                sgIP_DHCP_Terminate
                0x02035188                sgIP_DHCP_BeginDgram
                0x02035420                sgIP_DHCP_SendDgram
                0x02035494                sgIP_DHCP_Update
                0x02035924                sgIP_DHCP_Release
                0x02035958                sgIP_DHCP_Start
                0x02035a18                sgIP_DHCP_Init
 .text          0x02035a60      0xaac c:/devkitPro/libnds/lib\libdswifi9.a(sgIP_DNS.o)
                0x02035a60                sgIP_DNS_Init
                0x02035a98                sgIP_DNS_Timer1000ms
                0x02035ae4                sgIP_DNS_FindDNSRecord
                0x02035c18                sgIP_DNS_GetUnusedRecord
                0x02035d54                sgIP_DNS_GenerateHostent
                0x02035e30                sgIP_DNS_CopyAliasAt
                0x02035e94                inet_ntoa
                0x02035ea4                sgIP_DNS_isipaddress
                0x020360b8                inet_aton
                0x020360d4                inet_addr
                0x020360f0                sgIP_DNS_gethostbyname
 .text          0x0203650c      0x140 c:/devkitPro/libnds/lib\libdswifi9.a(sgIP_IP.o)
                0x0203650c                sgIP_IP_RequiredHeaderSize
                0x02036510                sgIP_IP_GetLocalBindAddr
                0x02036520                sgIP_IP_SendViaIP
                0x020365ac                sgIP_IP_MaxContentsSize
                0x020365b8                sgIP_IP_ReceivePacket
 .text          0x0203664c     0x1278 c:/devkitPro/libnds/lib\libdswifi9.a(sgIP_TCP.o)
                0x0203664c                sgIP_TCP_Init
                0x02036680                sgIP_TCP_support_seqhash
                0x020366d8                sgIP_TCP_GetUnusedOutgoingPort
                0x02036740                sgIP_TCP_Bind
                0x0203676c                sgIP_TCP_Close
                0x020367a0                sgIP_TCP_Accept
                0x02036820                sgIP_TCP_Listen
                0x0203687c                sgIP_TCP_AllocRecord
                0x020368c8                sgIP_TCP_FreeRecord
                0x020369c8                sgIP_TCP_GenHeader
                0x02036a80                sgIP_TCP_FixChecksum
                0x02036af0                sgIP_TCP_SendSynReply
                0x02036b9c                sgIP_TCP_SendPacket
                0x02036c8c                sgIP_TCP_Recv
                0x02036d78                sgIP_TCP_Send
                0x02036e84                sgIP_TCP_Connect
                0x02036f74                sgIP_TCP_Timer
                0x020371d4                sgIP_TCP_CalcChecksum
                0x02037230                sgIP_TCP_ReceivePacket
 .text          0x020378c4      0x460 c:/devkitPro/libnds/lib\libdswifi9.a(sgIP_UDP.o)
                0x020378c4                sgIP_UDP_Init
                0x020378e0                sgIP_UDP_GetUnusedOutgoingPort
                0x02037944                sgIP_UDP_Bind
                0x02037980                sgIP_UDP_RecvFrom
                0x02037a78                sgIP_UDP_FreeRecord
                0x02037ad8                sgIP_UDP_AllocRecord
                0x02037b10                sgIP_UDP_CalcChecksum
                0x02037b74                sgIP_UDP_SendPacket
                0x02037c68                sgIP_UDP_SendTo
                0x02037c7c                sgIP_UDP_ReceivePacket
 .text          0x02037d24       0x68 c:/devkitPro/libnds/lib\libdswifi9.a(sgIP_ICMP.o)
                0x02037d24                sgIP_ICMP_Init
                0x02037d28                sgIP_ICMP_ReceivePacket
 .text          0x02037d8c      0x240 c:/devkitPro/libnds/lib\libmm9.a(mm_comms.o)
                0x02037d8c                mmSetupComms
                0x02037dce                mmSendBank
                0x02037dd8                mmLockChannels
                0x02037dde                mmUnlockChannels
                0x02037de4                mmStart
                0x02037dee                mmPause
                0x02037df2                mmResume
                0x02037df6                mmStop
                0x02037dfa                mmPosition
                0x02037dfe                mmJingle
                0x02037e02                mmSetModuleVolume
                0x02037e06                mmSetJingleVolume
                0x02037e0a                mmSetModuleTempo
                0x02037e0e                mmSetModulePitch
                0x02037e12                mmSetEffectsVolume
                0x02037e16                mmSelectMode
                0x02037e1a                mmStreamBegin
                0x02037e2e                mmStreamEnd
                0x02037e84                mmEffect
                0x02037ea8                mmEffectVolume
                0x02037eac                mmEffectPanning
                0x02037eb0                mmEffectRate
                0x02037eba                mmEffectScaleRate
                0x02037ec4                mmEffectRelease
                0x02037eca                mmEffectCancel
                0x02037ed0                mmEffectEx
                0x02037f0e                mmEffectCancelAll
                0x02037f12                mmReverbEnable
                0x02037f16                mmReverbDisable
                0x02037f1a                mmReverbConfigure
                0x02037f76                mmReverbStart
                0x02037f7a                mmReverbStop
 .text          0x02037fcc      0x108 c:/devkitPro/libnds/lib\libmm9.a(mm_main9.o)
                0x02037fcc                mmActive
                0x02037fd2                mmSetEventHandler
                0x02037fd8                mmInit
                0x02038002                mmInitDefault
                0x0203804c                mmInitDefaultMem
                0x0203806e                mmSuspendIRQ_t
                0x0203808c                mmRestoreIRQ_t
 .text          0x020380d4      0x120 c:/devkitPro/libnds/lib\libmm9.a(mm_memory.o)
                0x020380d4                mmLoad
                0x02038124                mmUnload
                0x0203817c                mmLoadEffect
                0x020381b4                mmUnloadEffect
 .text          0x020381f4      0x100 c:/devkitPro/libnds/lib\libmm9.a(mm_soundbank.o)
                0x020381f4                mmSoundBankInMemory
                0x020381fc                mmSoundBankInFiles
                0x0203820e                mmSetCustomSoundBankHandler
                0x0203823a                mmsHandleFileOp
 .text          0x020382f4       0x3c c:/devkitPro/libnds/lib\libmm9.a(mm_flusher.o)
                0x020382f4                mmFlushBank
 .text          0x02038330       0x8c c:/devkitpro/devkitarm/bin/../lib/gcc/arm-eabi/4.4.3/thumb\libgcc.a(_udivsi3.o)
                0x02038330                __aeabi_uidiv
                0x02038330                __udivsi3
                0x020383ac                __aeabi_uidivmod
 .text          0x020383bc       0xa4 c:/devkitpro/devkitarm/bin/../lib/gcc/arm-eabi/4.4.3/thumb\libgcc.a(_divsi3.o)
                0x020383bc                __divsi3
                0x020383bc                __aeabi_idiv
                0x02038450                __aeabi_idivmod
 .text          0x02038460        0x4 c:/devkitpro/devkitarm/bin/../lib/gcc/arm-eabi/4.4.3/thumb\libgcc.a(_dvmd_tls.o)
                0x02038460                __div0
                0x02038460                __aeabi_idiv0
                0x02038460                __aeabi_ldiv0
 .text          0x02038464      0x41c c:/devkitpro/devkitarm/bin/../lib/gcc/arm-eabi/4.4.3/thumb\libgcc.a(_arm_addsubdf3.o)
                0x02038464                __aeabi_drsub
                0x0203846c                __aeabi_dsub
                0x0203846c                __subdf3
                0x02038470                __aeabi_dadd
                0x02038470                __adddf3
                0x02038780                __floatunsidf
                0x02038780                __aeabi_ui2d
                0x020387a4                __floatsidf
                0x020387a4                __aeabi_i2d
                0x020387cc                __aeabi_f2d
                0x020387cc                __extendsfdf2
                0x0203880c                __floatundidf
                0x0203880c                __aeabi_ul2d
                0x02038820                __floatdidf
                0x02038820                __aeabi_l2d
 .text          0x02038880      0x49c c:/devkitpro/devkitarm/bin/../lib/gcc/arm-eabi/4.4.3/thumb\libgcc.a(_arm_muldivdf3.o)
                0x02038880                __aeabi_dmul
                0x02038880                __muldf3
                0x02038b10                __divdf3
                0x02038b10                __aeabi_ddiv
 .text          0x02038d1c      0x144 c:/devkitpro/devkitarm/bin/../lib/gcc/arm-eabi/4.4.3/thumb\libgcc.a(_arm_cmpdf2.o)
                0x02038d1c                __gtdf2
                0x02038d1c                __gedf2
                0x02038d24                __ltdf2
                0x02038d24                __ledf2
                0x02038d2c                __nedf2
                0x02038d2c                __eqdf2
                0x02038d2c                __cmpdf2
                0x02038db4                __aeabi_cdrcmple
                0x02038dd0                __aeabi_cdcmpeq
                0x02038dd0                __aeabi_cdcmple
                0x02038de8                __aeabi_dcmpeq
                0x02038e00                __aeabi_dcmplt
                0x02038e18                __aeabi_dcmple
                0x02038e30                __aeabi_dcmpge
                0x02038e48                __aeabi_dcmpgt
 .text          0x02038e60       0x5c c:/devkitpro/devkitarm/bin/../lib/gcc/arm-eabi/4.4.3/thumb\libgcc.a(_arm_fixdfsi.o)
                0x02038e60                __aeabi_d2iz
                0x02038e60                __fixdfsi
 .text          0x02038ebc      0x2ac c:/devkitpro/devkitarm/bin/../lib/gcc/arm-eabi/4.4.3/thumb\libgcc.a(_arm_addsubsf3.o)
                0x02038ebc                __aeabi_frsub
                0x02038ec4                __subsf3
                0x02038ec4                __aeabi_fsub
                0x02038ec8                __aeabi_fadd
                0x02038ec8                __addsf3
                0x02039084                __aeabi_ui2f
                0x02039084                __floatunsisf
                0x0203908c                __aeabi_i2f
                0x0203908c                __floatsisf
                0x020390ac                __aeabi_ul2f
                0x020390ac                __floatundisf
                0x020390bc                __aeabi_l2f
                0x020390bc                __floatdisf
 .text          0x02039168      0x2f8 c:/devkitpro/devkitarm/bin/../lib/gcc/arm-eabi/4.4.3/thumb\libgcc.a(_arm_muldivsf3.o)
                0x02039168                __mulsf3
                0x02039168                __aeabi_fmul
                0x02039300                __aeabi_fdiv
                0x02039300                __divsf3
 .text          0x02039460       0x74 c:/devkitpro/devkitarm/bin/../lib/gcc/arm-eabi/4.4.3/thumb\libgcc.a(_muldi3.o)
                0x02039460                __muldi3
                0x02039460                __aeabi_lmul
 .text          0x020394d4       0x60 c:/devkitpro/devkitarm/bin/../lib/gcc/arm-eabi/4.4.3/../../../../arm-eabi/lib/thumb\libg.a(lib_a-bsearch.o)
                0x020394d4                bsearch
 .text          0x02039534       0x1c c:/devkitpro/devkitarm/bin/../lib/gcc/arm-eabi/4.4.3/../../../../arm-eabi/lib/thumb\libg.a(lib_a-calloc.o)
                0x02039534                calloc
 .text          0x02039550       0x60 c:/devkitpro/devkitarm/bin/../lib/gcc/arm-eabi/4.4.3/../../../../arm-eabi/lib/thumb\libg.a(lib_a-callocr.o)
                0x02039550                _calloc_r
 .text          0x020395b0        0xc c:/devkitpro/devkitarm/bin/../lib/gcc/arm-eabi/4.4.3/../../../../arm-eabi/lib/thumb\libg.a(lib_a-errno.o)
                0x020395b0                __errno
 .text          0x020395bc       0xc0 c:/devkitpro/devkitarm/bin/../lib/gcc/arm-eabi/4.4.3/../../../../arm-eabi/lib/thumb\libg.a(lib_a-fclose.o)
                0x020395bc                _fclose_r
                0x02039660                fclose
 .text          0x0203967c      0x184 c:/devkitpro/devkitarm/bin/../lib/gcc/arm-eabi/4.4.3/../../../../arm-eabi/lib/thumb\libg.a(lib_a-fflush.o)
                0x0203967c                _fflush_r
                0x020397cc                fflush
 .text          0x02039800      0x1e4 c:/devkitpro/devkitarm/bin/../lib/gcc/arm-eabi/4.4.3/../../../../arm-eabi/lib/thumb\libg.a(lib_a-findfp.o)
                0x02039800                __sfp_lock_acquire
                0x02039804                __sfp_lock_release
                0x02039808                __sinit_lock_acquire
                0x0203980c                __sinit_lock_release
                0x02039818                __fp_unlock_all
                0x02039834                __fp_lock_all
                0x02039850                _cleanup_r
                0x02039864                _cleanup
                0x020398c4                __sinit
                0x02039920                __sfmoreglue
                0x02039954                __sfp
 .text          0x020399e4       0xb0 c:/devkitpro/devkitarm/bin/../lib/gcc/arm-eabi/4.4.3/../../../../arm-eabi/lib/thumb\libg.a(lib_a-fopen.o)
                0x020399e4                _fopen_r
                0x02039a78                fopen
 .text          0x02039a94       0x3c c:/devkitpro/devkitarm/bin/../lib/gcc/arm-eabi/4.4.3/../../../../arm-eabi/lib/thumb\libg.a(lib_a-fprintf.o)
                0x02039a94                fprintf
                0x02039ab8                _fprintf_r
 .text          0x02039ad0      0x1b0 c:/devkitpro/devkitarm/bin/../lib/gcc/arm-eabi/4.4.3/../../../../arm-eabi/lib/thumb\libg.a(lib_a-fread.o)
                0x02039ad0                _fread_r
                0x02039c58                fread
 .text          0x02039c80      0x250 c:/devkitpro/devkitarm/bin/../lib/gcc/arm-eabi/4.4.3/../../../../arm-eabi/lib/thumb\libg.a(lib_a-freer.o)
                0x02039c80                _malloc_trim_r
                0x02039d24                _free_r
 .text          0x02039ed0      0x348 c:/devkitpro/devkitarm/bin/../lib/gcc/arm-eabi/4.4.3/../../../../arm-eabi/lib/thumb\libg.a(lib_a-fseek.o)
                0x02039ed0                _fseek_r
                0x0203a1f4                fseek
 .text          0x0203a218       0x9c c:/devkitpro/devkitarm/bin/../lib/gcc/arm-eabi/4.4.3/../../../../arm-eabi/lib/thumb\libg.a(lib_a-ftell.o)
                0x0203a218                _ftell_r
                0x0203a298                ftell
 .text          0x0203a2b4       0xc4 c:/devkitpro/devkitarm/bin/../lib/gcc/arm-eabi/4.4.3/../../../../arm-eabi/lib/thumb\libg.a(lib_a-fwalk.o)
                0x0203a2b4                _fwalk_reent
                0x0203a318                _fwalk
 .text          0x0203a378       0xa4 c:/devkitpro/devkitarm/bin/../lib/gcc/arm-eabi/4.4.3/../../../../arm-eabi/lib/thumb\libg.a(lib_a-fwrite.o)
                0x0203a378                _fwrite_r
                0x0203a3f4                fwrite
 .text          0x0203a41c       0x18 c:/devkitpro/devkitarm/bin/../lib/gcc/arm-eabi/4.4.3/../../../../arm-eabi/lib/thumb\libg.a(lib_a-gmtime.o)
                0x0203a41c                gmtime
 .text          0x0203a434       0x10 c:/devkitpro/devkitarm/bin/../lib/gcc/arm-eabi/4.4.3/../../../../arm-eabi/lib/thumb\libg.a(lib_a-gmtime_r.o)
                0x0203a434                gmtime_r
 .text          0x0203a444        0x0 c:/devkitpro/devkitarm/bin/../lib/gcc/arm-eabi/4.4.3/../../../../arm-eabi/lib/thumb\libg.a(lib_a-impure.o)
 .text          0x0203a444       0x90 c:/devkitpro/devkitarm/bin/../lib/gcc/arm-eabi/4.4.3/../../../../arm-eabi/lib/thumb\libg.a(lib_a-init.o)
                0x0203a444                __libc_fini_array
                0x0203a480                __libc_init_array
 .text          0x0203a4d4       0x40 c:/devkitpro/devkitarm/bin/../lib/gcc/arm-eabi/4.4.3/../../../../arm-eabi/lib/thumb\libg.a(lib_a-iprintf.o)
                0x0203a4d4                _iprintf_r
                0x0203a4f0                iprintf
 .text          0x0203a514       0x10 c:/devkitpro/devkitarm/bin/../lib/gcc/arm-eabi/4.4.3/../../../../arm-eabi/lib/thumb\libg.a(lib_a-lcltime_r.o)
                0x0203a514                localtime_r
 .text          0x0203a524      0x7d4 c:/devkitpro/devkitarm/bin/../lib/gcc/arm-eabi/4.4.3/../../../../arm-eabi/lib/thumb\libg.a(lib_a-locale.o)
                0x0203a524                __locale_charset
                0x0203a52c                __locale_msgcharset
                0x0203a538                __locale_cjk_lang
                0x0203a544                _localeconv_r
                0x0203a54c                localeconv
                0x0203aaac                _setlocale_r
                0x0203acdc                setlocale
 .text          0x0203acf8       0xe8 c:/devkitpro/devkitarm/bin/../lib/gcc/arm-eabi/4.4.3/../../../../arm-eabi/lib/thumb\libg.a(lib_a-makebuf.o)
                0x0203acf8                __smakebuf_r
 .text          0x0203ade0       0x30 c:/devkitpro/devkitarm/bin/../lib/gcc/arm-eabi/4.4.3/../../../../arm-eabi/lib/thumb\libg.a(lib_a-malloc.o)
                0x0203ade0                free
                0x0203adf8                malloc
 .text          0x0203ae10      0x504 c:/devkitpro/devkitarm/bin/../lib/gcc/arm-eabi/4.4.3/../../../../arm-eabi/lib/thumb\libg.a(lib_a-mallocr.o)
                0x0203ae10                _malloc_r
 .text          0x0203b314      0x110 c:/devkitpro/devkitarm/bin/../lib/gcc/arm-eabi/4.4.3/../../../../arm-eabi/lib/thumb\libg.a(lib_a-mbrtowc.o)
                0x0203b314                mbrtowc
                0x0203b3a0                _mbrtowc_r
 .text          0x0203b424       0x48 c:/devkitpro/devkitarm/bin/../lib/gcc/arm-eabi/4.4.3/../../../../arm-eabi/lib/thumb\libg.a(lib_a-mbsrtowcs.o)
                0x0203b424                mbsrtowcs
                0x0203b450                _mbsrtowcs_r
 .text          0x0203b46c      0x4d4 c:/devkitpro/devkitarm/bin/../lib/gcc/arm-eabi/4.4.3/../../../../arm-eabi/lib/thumb\libg.a(lib_a-mbtowc_r.o)
                0x0203b46c                __ascii_mbtowc
                0x0203b49c                __utf8_mbtowc
                0x0203b6a0                __sjis_mbtowc
                0x0203b728                __eucjp_mbtowc
                0x0203b7d8                __jis_mbtowc
                0x0203b900                _mbtowc_r
 .text          0x0203b940       0x58 c:/devkitpro/devkitarm/bin/../lib/gcc/arm-eabi/4.4.3/../../../../arm-eabi/lib/thumb\libg.a(lib_a-memcmp.o)
                0x0203b940                memcmp
 .text          0x0203b998       0x80 c:/devkitpro/devkitarm/bin/../lib/gcc/arm-eabi/4.4.3/../../../../arm-eabi/lib/thumb\libg.a(lib_a-memcpy.o)
                0x0203b998                memcpy
 .text          0x0203ba18       0xa0 c:/devkitpro/devkitarm/bin/../lib/gcc/arm-eabi/4.4.3/../../../../arm-eabi/lib/thumb\libg.a(lib_a-memmove.o)
                0x0203ba18                memmove
 .text          0x0203bab8       0x94 c:/devkitpro/devkitarm/bin/../lib/gcc/arm-eabi/4.4.3/../../../../arm-eabi/lib/thumb\libg.a(lib_a-memset.o)
                0x0203bab8                memset
 .text          0x0203bb4c      0x494 c:/devkitpro/devkitarm/bin/../lib/gcc/arm-eabi/4.4.3/../../../../arm-eabi/lib/thumb\libg.a(lib_a-mktime.o)
                0x0203bd48                mktime
 .text          0x0203bfe0      0x4b0 c:/devkitpro/devkitarm/bin/../lib/gcc/arm-eabi/4.4.3/../../../../arm-eabi/lib/thumb\libg.a(lib_a-mktm_r.o)
                0x0203bfe0                __tzcalc_limits
                0x0203c164                _mktm_r
 .text          0x0203c490        0x8 c:/devkitpro/devkitarm/bin/../lib/gcc/arm-eabi/4.4.3/../../../../arm-eabi/lib/thumb\libg.a(lib_a-mlock.o)
                0x0203c490                __malloc_lock
                0x0203c494                __malloc_unlock
 .text          0x0203c498       0x1c c:/devkitpro/devkitarm/bin/../lib/gcc/arm-eabi/4.4.3/../../../../arm-eabi/lib/thumb\libg.a(lib_a-realloc.o)
                0x0203c498                realloc
 .text          0x0203c4b4      0x354 c:/devkitpro/devkitarm/bin/../lib/gcc/arm-eabi/4.4.3/../../../../arm-eabi/lib/thumb\libg.a(lib_a-reallocr.o)
                0x0203c4b4                _realloc_r
 .text          0x0203c808      0x128 c:/devkitpro/devkitarm/bin/../lib/gcc/arm-eabi/4.4.3/../../../../arm-eabi/lib/thumb\libg.a(lib_a-refill.o)
                0x0203c808                __srefill_r
 .text          0x0203c930       0x34 c:/devkitpro/devkitarm/bin/../lib/gcc/arm-eabi/4.4.3/../../../../arm-eabi/lib/thumb\libg.a(lib_a-rewind.o)
                0x0203c930                _rewind_r
                0x0203c94c                rewind
 .text          0x0203c964      0x10c c:/devkitpro/devkitarm/bin/../lib/gcc/arm-eabi/4.4.3/../../../../arm-eabi/lib/thumb\libg.a(lib_a-setvbuf.o)
                0x0203c964                setvbuf
 .text          0x0203ca70       0xa0 c:/devkitpro/devkitarm/bin/../lib/gcc/arm-eabi/4.4.3/../../../../arm-eabi/lib/thumb\libg.a(lib_a-siscanf.o)
                0x0203ca70                _siscanf_r
                0x0203cac0                siscanf
 .text          0x0203cb10       0xcc c:/devkitpro/devkitarm/bin/../lib/gcc/arm-eabi/4.4.3/../../../../arm-eabi/lib/thumb\libg.a(lib_a-snprintf.o)
                0x0203cb10                snprintf
                0x0203cb78                _snprintf_r
 .text          0x0203cbdc       0x84 c:/devkitpro/devkitarm/bin/../lib/gcc/arm-eabi/4.4.3/../../../../arm-eabi/lib/thumb\libg.a(lib_a-sprintf.o)
                0x0203cbdc                sprintf
                0x0203cc20                _sprintf_r
 .text          0x0203cc60       0xac c:/devkitpro/devkitarm/bin/../lib/gcc/arm-eabi/4.4.3/../../../../arm-eabi/lib/thumb\libg.a(lib_a-stdio.o)
                0x0203cc60                __seofread
                0x0203cc64                __sclose
                0x0203cc74                __sseek
                0x0203cca4                __swrite
                0x0203cce0                __sread
 .text          0x0203cd0c       0x54 c:/devkitpro/devkitarm/bin/../lib/gcc/arm-eabi/4.4.3/../../../../arm-eabi/lib/thumb\libg.a(lib_a-strcasecmp.o)
                0x0203cd0c                strcasecmp
 .text          0x0203cd60       0x50 c:/devkitpro/devkitarm/bin/../lib/gcc/arm-eabi/4.4.3/../../../../arm-eabi/lib/thumb\libg.a(lib_a-strcat.o)
                0x0203cd60                strcat
 .text          0x0203cdb0       0xd4 c:/devkitpro/devkitarm/bin/../lib/gcc/arm-eabi/4.4.3/../../../../arm-eabi/lib/thumb\libg.a(lib_a-strchr.o)
                0x0203cdb0                strchr
 .text          0x0203ce84       0x14 c:/devkitpro/devkitarm/bin/../lib/gcc/arm-eabi/4.4.3/../../../../arm-eabi/lib/thumb\libg.a(lib_a-strcmp.o)
                0x0203ce84                strcmp
 .text          0x0203ce98       0x10 c:/devkitpro/devkitarm/bin/../lib/gcc/arm-eabi/4.4.3/../../../../arm-eabi/lib/thumb\libg.a(lib_a-strcpy.o)
                0x0203ce98                strcpy
 .text          0x0203cea8       0x44 c:/devkitpro/devkitarm/bin/../lib/gcc/arm-eabi/4.4.3/../../../../arm-eabi/lib/thumb\libg.a(lib_a-strlcpy.o)
                0x0203cea8                strlcpy
 .text          0x0203ceec       0x10 c:/devkitpro/devkitarm/bin/../lib/gcc/arm-eabi/4.4.3/../../../../arm-eabi/lib/thumb\libg.a(lib_a-strlen.o)
                0x0203ceec                strlen
 .text          0x0203cefc       0x74 c:/devkitpro/devkitarm/bin/../lib/gcc/arm-eabi/4.4.3/../../../../arm-eabi/lib/thumb\libg.a(lib_a-strncasecmp.o)
                0x0203cefc                strncasecmp
 .text          0x0203cf70       0xac c:/devkitpro/devkitarm/bin/../lib/gcc/arm-eabi/4.4.3/../../../../arm-eabi/lib/thumb\libg.a(lib_a-strncmp.o)
                0x0203cf70                strncmp
 .text          0x0203d01c       0x64 c:/devkitpro/devkitarm/bin/../lib/gcc/arm-eabi/4.4.3/../../../../arm-eabi/lib/thumb\libg.a(lib_a-strncpy.o)
                0x0203d01c                strncpy
 .text          0x0203d080       0x2c c:/devkitpro/devkitarm/bin/../lib/gcc/arm-eabi/4.4.3/../../../../arm-eabi/lib/thumb\libg.a(lib_a-strnlen.o)
                0x0203d080                strnlen
 .text          0x0203d0ac       0x44 c:/devkitpro/devkitarm/bin/../lib/gcc/arm-eabi/4.4.3/../../../../arm-eabi/lib/thumb\libg.a(lib_a-strpbrk.o)
                0x0203d0ac                strpbrk
 .text          0x0203d0f0       0x30 c:/devkitpro/devkitarm/bin/../lib/gcc/arm-eabi/4.4.3/../../../../arm-eabi/lib/thumb\libg.a(lib_a-strrchr.o)
                0x0203d0f0                strrchr
 .text          0x0203d120      0x5e8 c:/devkitpro/devkitarm/bin/../lib/gcc/arm-eabi/4.4.3/../../../../arm-eabi/lib/thumb\libg.a(lib_a-strstr.o)
                0x0203d490                strstr
 .text          0x0203d708      0x188 c:/devkitpro/devkitarm/bin/../lib/gcc/arm-eabi/4.4.3/../../../../arm-eabi/lib/thumb\libg.a(lib_a-strtol.o)
                0x0203d708                _strtol_r
                0x0203d870                strtol
 .text          0x0203d890      0x174 c:/devkitpro/devkitarm/bin/../lib/gcc/arm-eabi/4.4.3/../../../../arm-eabi/lib/thumb\libg.a(lib_a-strtoul.o)
                0x0203d890                _strtoul_r
                0x0203d9e4                strtoul
 .text          0x0203da04      0xafc c:/devkitpro/devkitarm/bin/../lib/gcc/arm-eabi/4.4.3/../../../../arm-eabi/lib/thumb\libg.a(lib_a-svfiscanf.o)
                0x0203da04                __ssrefill_r
                0x0203da48                _sfread_r
                0x0203dadc                _sungetc_r
                0x0203db6c                __ssvfiscanf_r
 .text          0x0203e500     0x1608 c:/devkitpro/devkitarm/bin/../lib/gcc/arm-eabi/4.4.3/../../../../arm-eabi/lib/thumb\libg.a(lib_a-svfprintf.o)
                0x0203e500                _svfprintf_r
 .text          0x0203fb08       0x18 c:/devkitpro/devkitarm/bin/../lib/gcc/arm-eabi/4.4.3/../../../../arm-eabi/lib/thumb\libg.a(lib_a-sysclose.o)
                0x0203fb08                close
 .text          0x0203fb20       0x20 c:/devkitpro/devkitarm/bin/../lib/gcc/arm-eabi/4.4.3/../../../../arm-eabi/lib/thumb\libg.a(lib_a-syslseek.o)
                0x0203fb20                lseek
 .text          0x0203fb40       0x28 c:/devkitpro/devkitarm/bin/../lib/gcc/arm-eabi/4.4.3/../../../../arm-eabi/lib/thumb\libg.a(lib_a-sysopen.o)
                0x0203fb40                open
 .text          0x0203fb68       0x20 c:/devkitpro/devkitarm/bin/../lib/gcc/arm-eabi/4.4.3/../../../../arm-eabi/lib/thumb\libg.a(lib_a-sysread.o)
                0x0203fb68                read
 .text          0x0203fb88       0x1c c:/devkitpro/devkitarm/bin/../lib/gcc/arm-eabi/4.4.3/../../../../arm-eabi/lib/thumb\libg.a(lib_a-sysstat.o)
                0x0203fb88                stat
 .text          0x0203fba4       0x34 c:/devkitpro/devkitarm/bin/../lib/gcc/arm-eabi/4.4.3/../../../../arm-eabi/lib/thumb\libg.a(lib_a-time.o)
                0x0203fba4                time
 .text          0x0203fbd8      0x42c c:/devkitpro/devkitarm/bin/../lib/gcc/arm-eabi/4.4.3/../../../../arm-eabi/lib/thumb\libg.a(lib_a-towlower.o)
                0x0203fbd8                towlower
 .text          0x02040004      0x608 c:/devkitpro/devkitarm/bin/../lib/gcc/arm-eabi/4.4.3/../../../../arm-eabi/lib/thumb\libg.a(lib_a-towupper.o)
                0x02040004                towupper
 .text          0x0204060c        0x8 c:/devkitpro/devkitarm/bin/../lib/gcc/arm-eabi/4.4.3/../../../../arm-eabi/lib/thumb\libg.a(lib_a-tzlock.o)
                0x0204060c                __tz_lock
                0x02040610                __tz_unlock
 .text          0x02040614        0x0 c:/devkitpro/devkitarm/bin/../lib/gcc/arm-eabi/4.4.3/../../../../arm-eabi/lib/thumb\libg.a(lib_a-tzvars.o)
 .text          0x02040614      0x1a0 c:/devkitpro/devkitarm/bin/../lib/gcc/arm-eabi/4.4.3/../../../../arm-eabi/lib/thumb\libg.a(lib_a-ungetc.o)
                0x02040614                __submore
                0x02040690                _ungetc_r
                0x02040798                ungetc
 .text          0x020407b4      0xdb8 c:/devkitpro/devkitarm/bin/../lib/gcc/arm-eabi/4.4.3/../../../../arm-eabi/lib/thumb\libg.a(lib_a-vfiprintf.o)
                0x020407b4                __sprint_r
                0x02040844                _vfiprintf_r
                0x02041548                vfiprintf
 *fill*         0x0204156c        0x4 ff
 .text          0x02041570     0x1820 c:/devkitpro/devkitarm/bin/../lib/gcc/arm-eabi/4.4.3/../../../../arm-eabi/lib/thumb\libg.a(lib_a-vfprintf.o)
                0x02041570                _vfprintf_r
                0x02042d6c                vfprintf
 .text          0x02042d90       0xf0 c:/devkitpro/devkitarm/bin/../lib/gcc/arm-eabi/4.4.3/../../../../arm-eabi/lib/thumb\libg.a(lib_a-wcrtomb.o)
                0x02042d90                wcrtomb
                0x02042e0c                _wcrtomb_r
 .text          0x02042e80       0x48 c:/devkitpro/devkitarm/bin/../lib/gcc/arm-eabi/4.4.3/../../../../arm-eabi/lib/thumb\libg.a(lib_a-wcsrtombs.o)
                0x02042e80                wcsrtombs
                0x02042eac                _wcsrtombs_r
 .text          0x02042ec8       0x60 c:/devkitpro/devkitarm/bin/../lib/gcc/arm-eabi/4.4.3/../../../../arm-eabi/lib/thumb\libg.a(lib_a-wctob.o)
                0x02042ec8                wctob
 .text          0x02042f28      0x290 c:/devkitpro/devkitarm/bin/../lib/gcc/arm-eabi/4.4.3/../../../../arm-eabi/lib/thumb\libg.a(lib_a-wctomb_r.o)
                0x02042f28                __ascii_wctomb
                0x02042f48                __utf8_wctomb
                0x0204300c                __sjis_wctomb
                0x0204306c                __eucjp_wctomb
                0x020430f4                __jis_wctomb
                0x0204317c                _wctomb_r
 .text          0x020431b8       0xd0 c:/devkitpro/devkitarm/bin/../lib/gcc/arm-eabi/4.4.3/../../../../arm-eabi/lib/thumb\libg.a(lib_a-wsetup.o)
                0x020431b8                __swsetup_r
 .text          0x02043288       0x10 c:/devkitpro/devkitarm/bin/../lib/gcc/arm-eabi/4.4.3/../../../../arm-eabi/lib/thumb\libg.a(lib_a-ctype_.o)
                0x02043288                __set_ctype
 .text          0x02043298       0x40 c:/devkitpro/devkitarm/bin/../lib/gcc/arm-eabi/4.4.3/../../../../arm-eabi/lib/thumb\libg.a(lib_a-div.o)
                0x02043298                div
 .text          0x020432d8      0xff0 c:/devkitpro/devkitarm/bin/../lib/gcc/arm-eabi/4.4.3/../../../../arm-eabi/lib/thumb\libg.a(lib_a-dtoa.o)
                0x02043430                _dtoa_r
 .text          0x020442c8       0x70 c:/devkitpro/devkitarm/bin/../lib/gcc/arm-eabi/4.4.3/../../../../arm-eabi/lib/thumb\libg.a(lib_a-flags.o)
                0x020442c8                __sflags
 .text          0x02044338      0x10c c:/devkitpro/devkitarm/bin/../lib/gcc/arm-eabi/4.4.3/../../../../arm-eabi/lib/thumb\libg.a(lib_a-fputwc.o)
                0x02044338                _fputwc_r
                0x02044418                fputwc
 .text          0x02044444      0x318 c:/devkitpro/devkitarm/bin/../lib/gcc/arm-eabi/4.4.3/../../../../arm-eabi/lib/thumb\libg.a(lib_a-fvwrite.o)
                0x02044444                __sfvwrite_r
 .text          0x0204475c       0xa4 c:/devkitpro/devkitarm/bin/../lib/gcc/arm-eabi/4.4.3/../../../../arm-eabi/lib/thumb\libg.a(lib_a-getenv_r.o)
                0x0204475c                _findenv_r
                0x020447f0                _getenv_r
 .text          0x02044800        0x8 c:/devkitpro/devkitarm/bin/../lib/gcc/arm-eabi/4.4.3/../../../../arm-eabi/lib/thumb\libg.a(lib_a-gettzinfo.o)
                0x02044800                __gettzinfo
 .text          0x02044808       0x60 c:/devkitpro/devkitarm/bin/../lib/gcc/arm-eabi/4.4.3/../../../../arm-eabi/lib/thumb\libg.a(lib_a-iswspace.o)
                0x02044808                iswspace
 .text          0x02044868      0x1f4 c:/devkitpro/devkitarm/bin/../lib/gcc/arm-eabi/4.4.3/../../../../arm-eabi/lib/thumb\libg.a(lib_a-jp2uc.o)
                0x020449f8                _jp2uc
 .text          0x02044a5c       0xfc c:/devkitpro/devkitarm/bin/../lib/gcc/arm-eabi/4.4.3/../../../../arm-eabi/lib/thumb\libg.a(lib_a-mbsnrtowcs.o)
                0x02044a5c                _mbsnrtowcs_r
                0x02044b2c                mbsnrtowcs
 .text          0x02044b58       0x80 c:/devkitpro/devkitarm/bin/../lib/gcc/arm-eabi/4.4.3/../../../../arm-eabi/lib/thumb\libg.a(lib_a-memchr.o)
                0x02044b58                memchr
 .text          0x02044bd8      0xa00 c:/devkitpro/devkitarm/bin/../lib/gcc/arm-eabi/4.4.3/../../../../arm-eabi/lib/thumb\libg.a(lib_a-mprec.o)
                0x02044bd8                _Bfree
                0x02044bf0                __hi0bits
                0x02044c44                __lo0bits
                0x02044cac                __mcmp
                0x02044cf0                __ulp
                0x02044d40                __b2d
                0x02044ddc                __ratio
                0x02044e40                _mprec_log10
                0x02044e84                __copybits
                0x02044ecc                __any_on
                0x02044f20                _Balloc
                0x02044f74                __d2b
                0x02045058                __mdiff
                0x02045178                __lshift
                0x0204523c                __multiply
                0x020453c0                __i2b
                0x020453d8                __multadd
                0x02045484                __pow5mult
                0x0204553c                __s2b
 .text          0x020455d8       0x84 c:/devkitpro/devkitarm/bin/../lib/gcc/arm-eabi/4.4.3/../../../../arm-eabi/lib/thumb\libg.a(lib_a-s_fpclassify.o)
                0x020455d8                __fpclassifyd
 .text          0x0204565c       0x78 c:/devkitpro/devkitarm/bin/../lib/gcc/arm-eabi/4.4.3/../../../../arm-eabi/lib/thumb\libg.a(lib_a-sccl.o)
                0x0204565c                __sccl
 .text          0x020456d4      0xcd8 c:/devkitpro/devkitarm/bin/../lib/gcc/arm-eabi/4.4.3/../../../../arm-eabi/lib/thumb\libg.a(lib_a-svfiprintf.o)
                0x020456d4                __ssprint_r
                0x02045808                _svfiprintf_r
 .text          0x020463ac       0xe0 c:/devkitpro/devkitarm/bin/../lib/gcc/arm-eabi/4.4.3/../../../../arm-eabi/lib/thumb\libg.a(lib_a-wbuf.o)
                0x020463ac                __swbuf_r
                0x02046470                __swbuf
 .text          0x0204648c      0x140 c:/devkitpro/devkitarm/bin/../lib/gcc/arm-eabi/4.4.3/../../../../arm-eabi/lib/thumb\libg.a(lib_a-wcsnrtombs.o)
                0x0204648c                _wcsnrtombs_r
                0x0204659c                wcsnrtombs
 .text          0x020465cc        0x0 c:/devkitpro/devkitarm/bin/../lib/gcc/arm-eabi/4.4.3/../../../../arm-eabi/lib/thumb\libg.a(lib_a-environ.o)
 .text          0x020465cc        0x8 c:/devkitpro/devkitarm/bin/../lib/gcc/arm-eabi/4.4.3/../../../../arm-eabi/lib/thumb\libg.a(lib_a-envlock.o)
                0x020465cc                __env_lock
                0x020465d0                __env_unlock
 .text          0x020465d4      0x144 c:/devkitpro/devkitarm/bin/../lib/gcc/arm-eabi/4.4.3/../../../../arm-eabi/lib/thumb\libsysbase.a(iosupport.o)
                0x020465d4                setDefaultDevice
                0x020465e8                AddDevice
                0x02046664                FindDevice
                0x020466d4                GetDeviceOpTab
                0x020466f4                RemoveDevice
 .text          0x02046718       0x50 c:/devkitpro/devkitarm/bin/../lib/gcc/arm-eabi/4.4.3/../../../../arm-eabi/lib/thumb\libsysbase.a(close.o)
                0x02046718                _close_r
 .text          0x02046768       0x58 c:/devkitpro/devkitarm/bin/../lib/gcc/arm-eabi/4.4.3/../../../../arm-eabi/lib/thumb\libsysbase.a(fstat.o)
                0x02046768                _fstat_r
 .text          0x020467c0        0x4 c:/devkitpro/devkitarm/bin/../lib/gcc/arm-eabi/4.4.3/../../../../arm-eabi/lib/thumb\libsysbase.a(isatty.o)
                0x020467c0                _isatty_r
 .text          0x020467c4       0x50 c:/devkitpro/devkitarm/bin/../lib/gcc/arm-eabi/4.4.3/../../../../arm-eabi/lib/thumb\libsysbase.a(lseek.o)
                0x020467c4                _lseek_r
 .text          0x02046814       0xa0 c:/devkitpro/devkitarm/bin/../lib/gcc/arm-eabi/4.4.3/../../../../arm-eabi/lib/thumb\libsysbase.a(open.o)
                0x02046814                _open_r
 .text          0x020468b4       0x50 c:/devkitpro/devkitarm/bin/../lib/gcc/arm-eabi/4.4.3/../../../../arm-eabi/lib/thumb\libsysbase.a(read.o)
                0x020468b4                _read_r
 .text          0x02046904       0x54 c:/devkitpro/devkitarm/bin/../lib/gcc/arm-eabi/4.4.3/../../../../arm-eabi/lib/thumb\libsysbase.a(sbrk.o)
                0x02046904                _sbrk_r
 .text          0x02046958       0x40 c:/devkitpro/devkitarm/bin/../lib/gcc/arm-eabi/4.4.3/../../../../arm-eabi/lib/thumb\libsysbase.a(stat.o)
                0x02046958                _stat_r
 .text          0x02046998       0x48 c:/devkitpro/devkitarm/bin/../lib/gcc/arm-eabi/4.4.3/../../../../arm-eabi/lib/thumb\libsysbase.a(times.o)
                0x02046998                _times_r
                0x020469a0                _gettimeofday_r
                0x020469cc                _times
 .text          0x020469e0       0x50 c:/devkitpro/devkitarm/bin/../lib/gcc/arm-eabi/4.4.3/../../../../arm-eabi/lib/thumb\libsysbase.a(write.o)
                0x020469e0                _write_r
 .text          0x02046a30        0x0 c:/devkitpro/devkitarm/bin/../lib/gcc/arm-eabi/4.4.3/../../../../arm-eabi/lib/thumb\libsysbase.a(malloc_vars.o)
 .text          0x02046a30      0x260 c:/devkitpro/devkitarm/bin/../lib/gcc/arm-eabi/4.4.3/../../../../arm-eabi/lib/thumb\libsysbase.a(chdir.o)
                0x02046a30                getcwd
                0x02046a7c                _concatenate_path
                0x02046b94                chdir
 .text          0x02046c90       0x54 c:/devkitpro/devkitarm/bin/../lib/gcc/arm-eabi/4.4.3/../../../../arm-eabi/lib/thumb\libsysbase.a(build_argv.o)
                0x02046c90                build_argv
 .text          0x02046ce4        0x0 c:/devkitpro/devkitarm/bin/../lib/gcc/arm-eabi/4.4.3/../../../../arm-eabi/lib/thumb\libsysbase.a(syscall_support.o)
 .text          0x02046ce4       0x88 c:/devkitpro/devkitarm/bin/../lib/gcc/arm-eabi/4.4.3/../../../../arm-eabi/lib/thumb\libsysbase.a(handle_manager.o)
                0x02046ce4                __get_handle
                0x02046d04                __alloc_handle
                0x02046d40                __release_handle
 .text          0x02046d6c      0x22c c:/devkitpro/devkitarm/bin/../lib/gcc/arm-eabi/4.4.3/../../../../arm-eabi/lib/thumb\libsysbase.a(dirent.o)
                0x02046d6c                telldir
                0x02046d80                rewinddir
                0x02046d98                seekdir
                0x02046dec                readdir_r
                0x02046e88                readdir
                0x02046f24                closedir
                0x02046f50                opendir
 .text          0x02046f98      0x148 c:/devkitpro/devkitarm/bin/../lib/gcc/arm-eabi/4.4.3/../../../../arm-eabi/lib/thumb\libsysbase.a(dir.o)
                0x02046f98                dirreset
                0x02046fd0                dirnext
                0x02047010                dirclose
                0x02047058                diropen
 .text          0x020470e0        0x0 c:/devkitpro/devkitarm/bin/../lib/gcc/arm-eabi/4.4.3/thumb/crtend.o
 .text          0x020470e0        0x0 c:/devkitpro/devkitarm/bin/../lib/gcc/arm-eabi/4.4.3/thumb/crtn.o
 *(.text.*)
 *(.stub)
 *(.gnu.warning)
 *(.gnu.linkonce.t*)
 *(.glue_7)
 .glue_7        0x00000000        0x0 linker stubs
 *(.glue_7t)
 .glue_7t       0x00000000        0x0 linker stubs
                0x020470e0                . = ALIGN (0x4)

.vfp11_veneer   0x00000000        0x0 load address 0x020470e0
 .vfp11_veneer  0x00000000        0x0 linker stubs

.v4_bx          0x00000000        0x0 load address 0x020470e0
 .v4_bx         0x00000000        0x0 linker stubs

.fini           0x020470e0        0xc
 *(.fini)
 .fini          0x020470e0        0x4 c:/devkitpro/devkitarm/bin/../lib/gcc/arm-eabi/4.4.3/thumb/crti.o
                0x020470e0                _fini
 .fini          0x020470e4        0x8 c:/devkitpro/devkitarm/bin/../lib/gcc/arm-eabi/4.4.3/thumb/crtn.o
                0x020470ec                __text_end = .

.rodata         0x020470f0   0x1ea22c
 *(.rodata)
 .rodata        0x020470f0      0x604 BG2_bas_alg_Map.o
                0x020470f0                BG2_bas_alg_Map
                0x020476f0                BG2_bas_alg_Map_end
                0x020476f0                BG2_bas_alg_Map_size
 .rodata        0x020476f4      0x204 BG2_bas_alg_Pal.o
                0x020476f4                BG2_bas_alg_Pal
                0x020478f4                BG2_bas_alg_Pal_size
                0x020478f4                BG2_bas_alg_Pal_end
 .rodata        0x020478f8     0x2284 BG2_bas_alg_Tiles.o
                0x020478f8                BG2_bas_alg_Tiles
                0x02049b78                BG2_bas_alg_Tiles_size
                0x02049b78                BG2_bas_alg_Tiles_end
 .rodata        0x02049b7c      0x604 BG2_bas_amazonia_Map.o
                0x02049b7c                BG2_bas_amazonia_Map
                0x0204a17c                BG2_bas_amazonia_Map_size
                0x0204a17c                BG2_bas_amazonia_Map_end
 .rodata        0x0204a180      0x204 BG2_bas_amazonia_Pal.o
                0x0204a180                BG2_bas_amazonia_Pal
                0x0204a380                BG2_bas_amazonia_Pal_size
                0x0204a380                BG2_bas_amazonia_Pal_end
 .rodata        0x0204a384     0x1644 BG2_bas_amazonia_Tiles.o
                0x0204a384                BG2_bas_amazonia_Tiles
                0x0204b9c4                BG2_bas_amazonia_Tiles_size
                0x0204b9c4                BG2_bas_amazonia_Tiles_end
 .rodata        0x0204b9c8      0x604 BG2_bas_arg_Map.o
                0x0204b9c8                BG2_bas_arg_Map
                0x0204bfc8                BG2_bas_arg_Map_size
                0x0204bfc8                BG2_bas_arg_Map_end
 .rodata        0x0204bfcc      0x204 BG2_bas_arg_Pal.o
                0x0204bfcc                BG2_bas_arg_Pal
                0x0204c1cc                BG2_bas_arg_Pal_size
                0x0204c1cc                BG2_bas_arg_Pal_end
 .rodata        0x0204c1d0     0x2604 BG2_bas_arg_Tiles.o
                0x0204c1d0                BG2_bas_arg_Tiles
                0x0204e7d0                BG2_bas_arg_Tiles_end
                0x0204e7d0                BG2_bas_arg_Tiles_size
 .rodata        0x0204e7d4      0x604 BG2_bas_aus_Map.o
                0x0204e7d4                BG2_bas_aus_Map
                0x0204edd4                BG2_bas_aus_Map_end
                0x0204edd4                BG2_bas_aus_Map_size
 .rodata        0x0204edd8      0x204 BG2_bas_aus_Pal.o
                0x0204edd8                BG2_bas_aus_Pal
                0x0204efd8                BG2_bas_aus_Pal_size
                0x0204efd8                BG2_bas_aus_Pal_end
 .rodata        0x0204efdc     0x2404 BG2_bas_aus_Tiles.o
                0x0204efdc                BG2_bas_aus_Tiles
                0x020513dc                BG2_bas_aus_Tiles_size
                0x020513dc                BG2_bas_aus_Tiles_end
 .rodata        0x020513e0      0x604 BG2_bas_baixada_Map.o
                0x020513e0                BG2_bas_baixada_Map
                0x020519e0                BG2_bas_baixada_Map_size
                0x020519e0                BG2_bas_baixada_Map_end
 .rodata        0x020519e4      0x204 BG2_bas_baixada_Pal.o
                0x020519e4                BG2_bas_baixada_Pal
                0x02051be4                BG2_bas_baixada_Pal_size
                0x02051be4                BG2_bas_baixada_Pal_end
 .rodata        0x02051be8     0x1644 BG2_bas_baixada_Tiles.o
                0x02051be8                BG2_bas_baixada_Tiles
                0x02053228                BG2_bas_baixada_Tiles_end
                0x02053228                BG2_bas_baixada_Tiles_size
 .rodata        0x0205322c      0x604 BG2_bas_beirario_Map.o
                0x0205322c                BG2_bas_beirario_Map
                0x0205382c                BG2_bas_beirario_Map_size
                0x0205382c                BG2_bas_beirario_Map_end
 .rodata        0x02053830      0x204 BG2_bas_beirario_Pal.o
                0x02053830                BG2_bas_beirario_Pal
                0x02053a30                BG2_bas_beirario_Pal_size
                0x02053a30                BG2_bas_beirario_Pal_end
 .rodata        0x02053a34     0x1484 BG2_bas_beirario_Tiles.o
                0x02053a34                BG2_bas_beirario_Tiles
                0x02054eb4                BG2_bas_beirario_Tiles_size
                0x02054eb4                BG2_bas_beirario_Tiles_end
 .rodata        0x02054eb8      0x604 BG2_bas_bel_Map.o
                0x02054eb8                BG2_bas_bel_Map
                0x020554b8                BG2_bas_bel_Map_end
                0x020554b8                BG2_bas_bel_Map_size
 .rodata        0x020554bc      0x204 BG2_bas_bel_Pal.o
                0x020554bc                BG2_bas_bel_Pal
                0x020556bc                BG2_bas_bel_Pal_end
                0x020556bc                BG2_bas_bel_Pal_size
 .rodata        0x020556c0     0x2204 BG2_bas_bel_Tiles.o
                0x020556c0                BG2_bas_bel_Tiles
                0x020578c0                BG2_bas_bel_Tiles_size
                0x020578c0                BG2_bas_bel_Tiles_end
 .rodata        0x020578c4      0x604 BG2_bas_bih_Map.o
                0x020578c4                BG2_bas_bih_Map
                0x02057ec4                BG2_bas_bih_Map_end
                0x02057ec4                BG2_bas_bih_Map_size
 .rodata        0x02057ec8      0x204 BG2_bas_bih_Pal.o
                0x02057ec8                BG2_bas_bih_Pal
                0x020580c8                BG2_bas_bih_Pal_size
                0x020580c8                BG2_bas_bih_Pal_end
 .rodata        0x020580cc     0x2284 BG2_bas_bih_Tiles.o
                0x020580cc                BG2_bas_bih_Tiles
                0x0205a34c                BG2_bas_bih_Tiles_end
                0x0205a34c                BG2_bas_bih_Tiles_size
 .rodata        0x0205a350      0x604 BG2_bas_bra_Map.o
                0x0205a350                BG2_bas_bra_Map
                0x0205a950                BG2_bas_bra_Map_end
                0x0205a950                BG2_bas_bra_Map_size
 .rodata        0x0205a954      0x204 BG2_bas_bra_Pal.o
                0x0205a954                BG2_bas_bra_Pal
                0x0205ab54                BG2_bas_bra_Pal_size
                0x0205ab54                BG2_bas_bra_Pal_end
 .rodata        0x0205ab58     0x25c4 BG2_bas_bra_Tiles.o
                0x0205ab58                BG2_bas_bra_Tiles
                0x0205d118                BG2_bas_bra_Tiles_end
                0x0205d118                BG2_bas_bra_Tiles_size
 .rodata        0x0205d11c      0x604 BG2_bas_castelao_Map.o
                0x0205d11c                BG2_bas_castelao_Map
                0x0205d71c                BG2_bas_castelao_Map_size
                0x0205d71c                BG2_bas_castelao_Map_end
 .rodata        0x0205d720      0x204 BG2_bas_castelao_Pal.o
                0x0205d720                BG2_bas_castelao_Pal
                0x0205d920                BG2_bas_castelao_Pal_end
                0x0205d920                BG2_bas_castelao_Pal_size
 .rodata        0x0205d924     0x1604 BG2_bas_castelao_Tiles.o
                0x0205d924                BG2_bas_castelao_Tiles
                0x0205ef24                BG2_bas_castelao_Tiles_size
                0x0205ef24                BG2_bas_castelao_Tiles_end
 .rodata        0x0205ef28      0x604 BG2_bas_chi_Map.o
                0x0205ef28                BG2_bas_chi_Map
                0x0205f528                BG2_bas_chi_Map_size
                0x0205f528                BG2_bas_chi_Map_end
 .rodata        0x0205f52c      0x204 BG2_bas_chi_Pal.o
                0x0205f52c                BG2_bas_chi_Pal
                0x0205f72c                BG2_bas_chi_Pal_end
                0x0205f72c                BG2_bas_chi_Pal_size
 .rodata        0x0205f730     0x2444 BG2_bas_chi_Tiles.o
                0x0205f730                BG2_bas_chi_Tiles
                0x02061b70                BG2_bas_chi_Tiles_size
                0x02061b70                BG2_bas_chi_Tiles_end
 .rodata        0x02061b74      0x604 BG2_bas_civ_Map.o
                0x02061b74                BG2_bas_civ_Map
                0x02062174                BG2_bas_civ_Map_end
                0x02062174                BG2_bas_civ_Map_size
 .rodata        0x02062178      0x204 BG2_bas_civ_Pal.o
                0x02062178                BG2_bas_civ_Pal
                0x02062378                BG2_bas_civ_Pal_size
                0x02062378                BG2_bas_civ_Pal_end
 .rodata        0x0206237c     0x2244 BG2_bas_civ_Tiles.o
                0x0206237c                BG2_bas_civ_Tiles
                0x020645bc                BG2_bas_civ_Tiles_size
                0x020645bc                BG2_bas_civ_Tiles_end
 .rodata        0x020645c0      0x604 BG2_bas_cmr_Map.o
                0x020645c0                BG2_bas_cmr_Map
                0x02064bc0                BG2_bas_cmr_Map_end
                0x02064bc0                BG2_bas_cmr_Map_size
 .rodata        0x02064bc4      0x204 BG2_bas_cmr_Pal.o
                0x02064bc4                BG2_bas_cmr_Pal
                0x02064dc4                BG2_bas_cmr_Pal_end
                0x02064dc4                BG2_bas_cmr_Pal_size
 .rodata        0x02064dc8     0x2504 BG2_bas_cmr_Tiles.o
                0x02064dc8                BG2_bas_cmr_Tiles
                0x020672c8                BG2_bas_cmr_Tiles_size
                0x020672c8                BG2_bas_cmr_Tiles_end
 .rodata        0x020672cc      0x604 BG2_bas_col_Map.o
                0x020672cc                BG2_bas_col_Map
                0x020678cc                BG2_bas_col_Map_size
                0x020678cc                BG2_bas_col_Map_end
 .rodata        0x020678d0      0x204 BG2_bas_col_Pal.o
                0x020678d0                BG2_bas_col_Pal
                0x02067ad0                BG2_bas_col_Pal_size
                0x02067ad0                BG2_bas_col_Pal_end
 .rodata        0x02067ad4     0x2404 BG2_bas_col_Tiles.o
                0x02067ad4                BG2_bas_col_Tiles
                0x02069ed4                BG2_bas_col_Tiles_end
                0x02069ed4                BG2_bas_col_Tiles_size
 .rodata        0x02069ed8      0x604 BG2_bas_crc_Map.o
                0x02069ed8                BG2_bas_crc_Map
                0x0206a4d8                BG2_bas_crc_Map_end
                0x0206a4d8                BG2_bas_crc_Map_size
 .rodata        0x0206a4dc      0x204 BG2_bas_crc_Pal.o
                0x0206a4dc                BG2_bas_crc_Pal
                0x0206a6dc                BG2_bas_crc_Pal_size
                0x0206a6dc                BG2_bas_crc_Pal_end
 .rodata        0x0206a6e0     0x2404 BG2_bas_crc_Tiles.o
                0x0206a6e0                BG2_bas_crc_Tiles
                0x0206cae0                BG2_bas_crc_Tiles_size
                0x0206cae0                BG2_bas_crc_Tiles_end
 .rodata        0x0206cae4      0x604 BG2_bas_cro_Map.o
                0x0206cae4                BG2_bas_cro_Map
                0x0206d0e4                BG2_bas_cro_Map_end
                0x0206d0e4                BG2_bas_cro_Map_size
 .rodata        0x0206d0e8      0x204 BG2_bas_cro_Pal.o
                0x0206d0e8                BG2_bas_cro_Pal
                0x0206d2e8                BG2_bas_cro_Pal_end
                0x0206d2e8                BG2_bas_cro_Pal_size
 .rodata        0x0206d2ec     0x2304 BG2_bas_cro_Tiles.o
                0x0206d2ec                BG2_bas_cro_Tiles
                0x0206f5ec                BG2_bas_cro_Tiles_end
                0x0206f5ec                BG2_bas_cro_Tiles_size
 .rodata        0x0206f5f0      0x604 BG2_bas_dasdunas_Map.o
                0x0206f5f0                BG2_bas_dasdunas_Map
                0x0206fbf0                BG2_bas_dasdunas_Map_end
                0x0206fbf0                BG2_bas_dasdunas_Map_size
 .rodata        0x0206fbf4      0x204 BG2_bas_dasdunas_Pal.o
                0x0206fbf4                BG2_bas_dasdunas_Pal
                0x0206fdf4                BG2_bas_dasdunas_Pal_end
                0x0206fdf4                BG2_bas_dasdunas_Pal_size
 .rodata        0x0206fdf8     0x1304 BG2_bas_dasdunas_Tiles.o
                0x0206fdf8                BG2_bas_dasdunas_Tiles
                0x020710f8                BG2_bas_dasdunas_Tiles_end
                0x020710f8                BG2_bas_dasdunas_Tiles_size
 .rodata        0x020710fc      0x604 BG2_bas_ecu_Map.o
                0x020710fc                BG2_bas_ecu_Map
                0x020716fc                BG2_bas_ecu_Map_size
                0x020716fc                BG2_bas_ecu_Map_end
 .rodata        0x02071700      0x204 BG2_bas_ecu_Pal.o
                0x02071700                BG2_bas_ecu_Pal
                0x02071900                BG2_bas_ecu_Pal_size
                0x02071900                BG2_bas_ecu_Pal_end
 .rodata        0x02071904     0x2384 BG2_bas_ecu_Tiles.o
                0x02071904                BG2_bas_ecu_Tiles
                0x02073c84                BG2_bas_ecu_Tiles_end
                0x02073c84                BG2_bas_ecu_Tiles_size
 .rodata        0x02073c88      0x604 BG2_bas_eng_Map.o
                0x02073c88                BG2_bas_eng_Map
                0x02074288                BG2_bas_eng_Map_end
                0x02074288                BG2_bas_eng_Map_size
 .rodata        0x0207428c      0x204 BG2_bas_eng_Pal.o
                0x0207428c                BG2_bas_eng_Pal
                0x0207448c                BG2_bas_eng_Pal_end
                0x0207448c                BG2_bas_eng_Pal_size
 .rodata        0x02074490     0x22c4 BG2_bas_eng_Tiles.o
                0x02074490                BG2_bas_eng_Tiles
                0x02076750                BG2_bas_eng_Tiles_size
                0x02076750                BG2_bas_eng_Tiles_end
 .rodata        0x02076754      0x604 BG2_bas_esp_Map.o
                0x02076754                BG2_bas_esp_Map
                0x02076d54                BG2_bas_esp_Map_end
                0x02076d54                BG2_bas_esp_Map_size
 .rodata        0x02076d58      0x204 BG2_bas_esp_Pal.o
                0x02076d58                BG2_bas_esp_Pal
                0x02076f58                BG2_bas_esp_Pal_end
                0x02076f58                BG2_bas_esp_Pal_size
 .rodata        0x02076f5c     0x2404 BG2_bas_esp_Tiles.o
                0x02076f5c                BG2_bas_esp_Tiles
                0x0207935c                BG2_bas_esp_Tiles_end
                0x0207935c                BG2_bas_esp_Tiles_size
 .rodata        0x02079360      0x604 BG2_bas_fontenova_Map.o
                0x02079360                BG2_bas_fontenova_Map
                0x02079960                BG2_bas_fontenova_Map_end
                0x02079960                BG2_bas_fontenova_Map_size
 .rodata        0x02079964      0x204 BG2_bas_fontenova_Pal.o
                0x02079964                BG2_bas_fontenova_Pal
                0x02079b64                BG2_bas_fontenova_Pal_size
                0x02079b64                BG2_bas_fontenova_Pal_end
 .rodata        0x02079b68     0x1604 BG2_bas_fontenova_Tiles.o
                0x02079b68                BG2_bas_fontenova_Tiles
                0x0207b168                BG2_bas_fontenova_Tiles_end
                0x0207b168                BG2_bas_fontenova_Tiles_size
 .rodata        0x0207b16c      0x604 BG2_bas_fra_Map.o
                0x0207b16c                BG2_bas_fra_Map
                0x0207b76c                BG2_bas_fra_Map_end
                0x0207b76c                BG2_bas_fra_Map_size
 .rodata        0x0207b770      0x204 BG2_bas_fra_Pal.o
                0x0207b770                BG2_bas_fra_Pal
                0x0207b970                BG2_bas_fra_Pal_end
                0x0207b970                BG2_bas_fra_Pal_size
 .rodata        0x0207b974     0x21c4 BG2_bas_fra_Tiles.o
                0x0207b974                BG2_bas_fra_Tiles
                0x0207db34                BG2_bas_fra_Tiles_size
                0x0207db34                BG2_bas_fra_Tiles_end
 .rodata        0x0207db38      0x604 BG2_bas_ger_Map.o
                0x0207db38                BG2_bas_ger_Map
                0x0207e138                BG2_bas_ger_Map_end
                0x0207e138                BG2_bas_ger_Map_size
 .rodata        0x0207e13c      0x204 BG2_bas_ger_Pal.o
                0x0207e13c                BG2_bas_ger_Pal
                0x0207e33c                BG2_bas_ger_Pal_size
                0x0207e33c                BG2_bas_ger_Pal_end
 .rodata        0x0207e340     0x22c4 BG2_bas_ger_Tiles.o
                0x0207e340                BG2_bas_ger_Tiles
                0x02080600                BG2_bas_ger_Tiles_end
                0x02080600                BG2_bas_ger_Tiles_size
 .rodata        0x02080604      0x604 BG2_bas_gha_Map.o
                0x02080604                BG2_bas_gha_Map
                0x02080c04                BG2_bas_gha_Map_end
                0x02080c04                BG2_bas_gha_Map_size
 .rodata        0x02080c08      0x204 BG2_bas_gha_Pal.o
                0x02080c08                BG2_bas_gha_Pal
                0x02080e08                BG2_bas_gha_Pal_size
                0x02080e08                BG2_bas_gha_Pal_end
 .rodata        0x02080e0c     0x2304 BG2_bas_gha_Tiles.o
                0x02080e0c                BG2_bas_gha_Tiles
                0x0208310c                BG2_bas_gha_Tiles_size
                0x0208310c                BG2_bas_gha_Tiles_end
 .rodata        0x02083110      0x604 BG2_bas_gre_Map.o
                0x02083110                BG2_bas_gre_Map
                0x02083710                BG2_bas_gre_Map_size
                0x02083710                BG2_bas_gre_Map_end
 .rodata        0x02083714      0x204 BG2_bas_gre_Pal.o
                0x02083714                BG2_bas_gre_Pal
                0x02083914                BG2_bas_gre_Pal_end
                0x02083914                BG2_bas_gre_Pal_size
 .rodata        0x02083918     0x21c4 BG2_bas_gre_Tiles.o
                0x02083918                BG2_bas_gre_Tiles
                0x02085ad8                BG2_bas_gre_Tiles_end
                0x02085ad8                BG2_bas_gre_Tiles_size
 .rodata        0x02085adc      0x604 BG2_bas_hon_Map.o
                0x02085adc                BG2_bas_hon_Map
                0x020860dc                BG2_bas_hon_Map_end
                0x020860dc                BG2_bas_hon_Map_size
 .rodata        0x020860e0      0x204 BG2_bas_hon_Pal.o
                0x020860e0                BG2_bas_hon_Pal
                0x020862e0                BG2_bas_hon_Pal_end
                0x020862e0                BG2_bas_hon_Pal_size
 .rodata        0x020862e4     0x2504 BG2_bas_hon_Tiles.o
                0x020862e4                BG2_bas_hon_Tiles
                0x020887e4                BG2_bas_hon_Tiles_size
                0x020887e4                BG2_bas_hon_Tiles_end
 .rodata        0x020887e8      0x604 BG2_bas_irn_Map.o
                0x020887e8                BG2_bas_irn_Map
                0x02088de8                BG2_bas_irn_Map_size
                0x02088de8                BG2_bas_irn_Map_end
 .rodata        0x02088dec      0x204 BG2_bas_irn_Pal.o
                0x02088dec                BG2_bas_irn_Pal
                0x02088fec                BG2_bas_irn_Pal_size
                0x02088fec                BG2_bas_irn_Pal_end
 .rodata        0x02088ff0     0x2204 BG2_bas_irn_Tiles.o
                0x02088ff0                BG2_bas_irn_Tiles
                0x0208b1f0                BG2_bas_irn_Tiles_size
                0x0208b1f0                BG2_bas_irn_Tiles_end
 .rodata        0x0208b1f4      0x604 BG2_bas_ita_Map.o
                0x0208b1f4                BG2_bas_ita_Map
                0x0208b7f4                BG2_bas_ita_Map_end
                0x0208b7f4                BG2_bas_ita_Map_size
 .rodata        0x0208b7f8      0x204 BG2_bas_ita_Pal.o
                0x0208b7f8                BG2_bas_ita_Pal
                0x0208b9f8                BG2_bas_ita_Pal_size
                0x0208b9f8                BG2_bas_ita_Pal_end
 .rodata        0x0208b9fc     0x21c4 BG2_bas_ita_Tiles.o
                0x0208b9fc                BG2_bas_ita_Tiles
                0x0208dbbc                BG2_bas_ita_Tiles_size
                0x0208dbbc                BG2_bas_ita_Tiles_end
 .rodata        0x0208dbc0      0x604 BG2_bas_jpn_Map.o
                0x0208dbc0                BG2_bas_jpn_Map
                0x0208e1c0                BG2_bas_jpn_Map_end
                0x0208e1c0                BG2_bas_jpn_Map_size
 .rodata        0x0208e1c4      0x204 BG2_bas_jpn_Pal.o
                0x0208e1c4                BG2_bas_jpn_Pal
                0x0208e3c4                BG2_bas_jpn_Pal_size
                0x0208e3c4                BG2_bas_jpn_Pal_end
 .rodata        0x0208e3c8     0x2344 BG2_bas_jpn_Tiles.o
                0x0208e3c8                BG2_bas_jpn_Tiles
                0x02090708                BG2_bas_jpn_Tiles_size
                0x02090708                BG2_bas_jpn_Tiles_end
 .rodata        0x0209070c      0x604 BG2_bas_kor_Map.o
                0x0209070c                BG2_bas_kor_Map
                0x02090d0c                BG2_bas_kor_Map_size
                0x02090d0c                BG2_bas_kor_Map_end
 .rodata        0x02090d10      0x204 BG2_bas_kor_Pal.o
                0x02090d10                BG2_bas_kor_Pal
                0x02090f10                BG2_bas_kor_Pal_size
                0x02090f10                BG2_bas_kor_Pal_end
 .rodata        0x02090f14     0x2284 BG2_bas_kor_Tiles.o
                0x02090f14                BG2_bas_kor_Tiles
                0x02093194                BG2_bas_kor_Tiles_end
                0x02093194                BG2_bas_kor_Tiles_size
 .rodata        0x02093198      0x604 BG2_bas_maracana_Map.o
                0x02093198                BG2_bas_maracana_Map
                0x02093798                BG2_bas_maracana_Map_size
                0x02093798                BG2_bas_maracana_Map_end
 .rodata        0x0209379c      0x204 BG2_bas_maracana_Pal.o
                0x0209379c                BG2_bas_maracana_Pal
                0x0209399c                BG2_bas_maracana_Pal_size
                0x0209399c                BG2_bas_maracana_Pal_end
 .rodata        0x020939a0     0x17c4 BG2_bas_maracana_Tiles.o
                0x020939a0                BG2_bas_maracana_Tiles
                0x02095160                BG2_bas_maracana_Tiles_end
                0x02095160                BG2_bas_maracana_Tiles_size
 .rodata        0x02095164      0x604 BG2_bas_mex_Map.o
                0x02095164                BG2_bas_mex_Map
                0x02095764                BG2_bas_mex_Map_end
                0x02095764                BG2_bas_mex_Map_size
 .rodata        0x02095768      0x204 BG2_bas_mex_Pal.o
                0x02095768                BG2_bas_mex_Pal
                0x02095968                BG2_bas_mex_Pal_end
                0x02095968                BG2_bas_mex_Pal_size
 .rodata        0x0209596c     0x2584 BG2_bas_mex_Tiles.o
                0x0209596c                BG2_bas_mex_Tiles
                0x02097eec                BG2_bas_mex_Tiles_size
                0x02097eec                BG2_bas_mex_Tiles_end
 .rodata        0x02097ef0      0x604 BG2_bas_mineirao_Map.o
                0x02097ef0                BG2_bas_mineirao_Map
                0x020984f0                BG2_bas_mineirao_Map_size
                0x020984f0                BG2_bas_mineirao_Map_end
 .rodata        0x020984f4      0x204 BG2_bas_mineirao_Pal.o
                0x020984f4                BG2_bas_mineirao_Pal
                0x020986f4                BG2_bas_mineirao_Pal_size
                0x020986f4                BG2_bas_mineirao_Pal_end
 .rodata        0x020986f8     0x1744 BG2_bas_mineirao_Tiles.o
                0x020986f8                BG2_bas_mineirao_Tiles
                0x02099e38                BG2_bas_mineirao_Tiles_end
                0x02099e38                BG2_bas_mineirao_Tiles_size
 .rodata        0x02099e3c      0x604 BG2_bas_nacional_Map.o
                0x02099e3c                BG2_bas_nacional_Map
                0x0209a43c                BG2_bas_nacional_Map_end
                0x0209a43c                BG2_bas_nacional_Map_size
 .rodata        0x0209a440      0x204 BG2_bas_nacional_Pal.o
                0x0209a440                BG2_bas_nacional_Pal
                0x0209a640                BG2_bas_nacional_Pal_size
                0x0209a640                BG2_bas_nacional_Pal_end
 .rodata        0x0209a644     0x1484 BG2_bas_nacional_Tiles.o
                0x0209a644                BG2_bas_nacional_Tiles
                0x0209bac4                BG2_bas_nacional_Tiles_end
                0x0209bac4                BG2_bas_nacional_Tiles_size
 .rodata        0x0209bac8      0x604 BG2_bas_ned_Map.o
                0x0209bac8                BG2_bas_ned_Map
                0x0209c0c8                BG2_bas_ned_Map_size
                0x0209c0c8                BG2_bas_ned_Map_end
 .rodata        0x0209c0cc      0x204 BG2_bas_ned_Pal.o
                0x0209c0cc                BG2_bas_ned_Pal
                0x0209c2cc                BG2_bas_ned_Pal_end
                0x0209c2cc                BG2_bas_ned_Pal_size
 .rodata        0x0209c2d0     0x2404 BG2_bas_ned_Tiles.o
                0x0209c2d0                BG2_bas_ned_Tiles
                0x0209e6d0                BG2_bas_ned_Tiles_size
                0x0209e6d0                BG2_bas_ned_Tiles_end
 .rodata        0x0209e6d4      0x604 BG2_bas_nga_Map.o
                0x0209e6d4                BG2_bas_nga_Map
                0x0209ecd4                BG2_bas_nga_Map_size
                0x0209ecd4                BG2_bas_nga_Map_end
 .rodata        0x0209ecd8      0x204 BG2_bas_nga_Pal.o
                0x0209ecd8                BG2_bas_nga_Pal
                0x0209eed8                BG2_bas_nga_Pal_size
                0x0209eed8                BG2_bas_nga_Pal_end
 .rodata        0x0209eedc     0x2384 BG2_bas_nga_Tiles.o
                0x0209eedc                BG2_bas_nga_Tiles
                0x020a125c                BG2_bas_nga_Tiles_end
                0x020a125c                BG2_bas_nga_Tiles_size
 .rodata        0x020a1260      0x604 BG2_bas_pantanal_Map.o
                0x020a1260                BG2_bas_pantanal_Map
                0x020a1860                BG2_bas_pantanal_Map_end
                0x020a1860                BG2_bas_pantanal_Map_size
 .rodata        0x020a1864      0x204 BG2_bas_pantanal_Pal.o
                0x020a1864                BG2_bas_pantanal_Pal
                0x020a1a64                BG2_bas_pantanal_Pal_end
                0x020a1a64                BG2_bas_pantanal_Pal_size
 .rodata        0x020a1a68     0x1304 BG2_bas_pantanal_Tiles.o
                0x020a1a68                BG2_bas_pantanal_Tiles
                0x020a2d68                BG2_bas_pantanal_Tiles_end
                0x020a2d68                BG2_bas_pantanal_Tiles_size
 .rodata        0x020a2d6c      0x604 BG2_bas_pernambuco_Map.o
                0x020a2d6c                BG2_bas_pernambuco_Map
                0x020a336c                BG2_bas_pernambuco_Map_end
                0x020a336c                BG2_bas_pernambuco_Map_size
 .rodata        0x020a3370      0x204 BG2_bas_pernambuco_Pal.o
                0x020a3370                BG2_bas_pernambuco_Pal
                0x020a3570                BG2_bas_pernambuco_Pal_size
                0x020a3570                BG2_bas_pernambuco_Pal_end
 .rodata        0x020a3574     0x1304 BG2_bas_pernambuco_Tiles.o
                0x020a3574                BG2_bas_pernambuco_Tiles
                0x020a4874                BG2_bas_pernambuco_Tiles_end
                0x020a4874                BG2_bas_pernambuco_Tiles_size
 .rodata        0x020a4878      0x604 BG2_bas_por_Map.o
                0x020a4878                BG2_bas_por_Map
                0x020a4e78                BG2_bas_por_Map_size
                0x020a4e78                BG2_bas_por_Map_end
 .rodata        0x020a4e7c      0x204 BG2_bas_por_Pal.o
                0x020a4e7c                BG2_bas_por_Pal
                0x020a507c                BG2_bas_por_Pal_end
                0x020a507c                BG2_bas_por_Pal_size
 .rodata        0x020a5080     0x2244 BG2_bas_por_Tiles.o
                0x020a5080                BG2_bas_por_Tiles
                0x020a72c0                BG2_bas_por_Tiles_end
                0x020a72c0                BG2_bas_por_Tiles_size
 .rodata        0x020a72c4      0x604 BG2_bas_rus_Map.o
                0x020a72c4                BG2_bas_rus_Map
                0x020a78c4                BG2_bas_rus_Map_size
                0x020a78c4                BG2_bas_rus_Map_end
 .rodata        0x020a78c8      0x204 BG2_bas_rus_Pal.o
                0x020a78c8                BG2_bas_rus_Pal
                0x020a7ac8                BG2_bas_rus_Pal_end
                0x020a7ac8                BG2_bas_rus_Pal_size
 .rodata        0x020a7acc     0x2284 BG2_bas_rus_Tiles.o
                0x020a7acc                BG2_bas_rus_Tiles
                0x020a9d4c                BG2_bas_rus_Tiles_end
                0x020a9d4c                BG2_bas_rus_Tiles_size
 .rodata        0x020a9d50      0x604 BG2_bas_saopaulo_Map.o
                0x020a9d50                BG2_bas_saopaulo_Map
                0x020aa350                BG2_bas_saopaulo_Map_size
                0x020aa350                BG2_bas_saopaulo_Map_end
 .rodata        0x020aa354      0x204 BG2_bas_saopaulo_Pal.o
                0x020aa354                BG2_bas_saopaulo_Pal
                0x020aa554                BG2_bas_saopaulo_Pal_size
                0x020aa554                BG2_bas_saopaulo_Pal_end
 .rodata        0x020aa558     0x13c4 BG2_bas_saopaulo_Tiles.o
                0x020aa558                BG2_bas_saopaulo_Tiles
                0x020ab918                BG2_bas_saopaulo_Tiles_end
                0x020ab918                BG2_bas_saopaulo_Tiles_size
 .rodata        0x020ab91c      0x804 BG2_bas_selection_Map.o
                0x020ab91c                BG2_bas_selection_Map
                0x020ac11c                BG2_bas_selection_Map_size
                0x020ac11c                BG2_bas_selection_Map_end
 .rodata        0x020ac120      0x204 BG2_bas_selection_Pal.o
                0x020ac120                BG2_bas_selection_Pal
                0x020ac320                BG2_bas_selection_Pal_end
                0x020ac320                BG2_bas_selection_Pal_size
 .rodata        0x020ac324      0x104 BG2_bas_selection_Tiles.o
                0x020ac324                BG2_bas_selection_Tiles
                0x020ac424                BG2_bas_selection_Tiles_size
                0x020ac424                BG2_bas_selection_Tiles_end
 .rodata        0x020ac428      0x604 BG2_bas_sui_Map.o
                0x020ac428                BG2_bas_sui_Map
                0x020aca28                BG2_bas_sui_Map_end
                0x020aca28                BG2_bas_sui_Map_size
 .rodata        0x020aca2c      0x204 BG2_bas_sui_Pal.o
                0x020aca2c                BG2_bas_sui_Pal
                0x020acc2c                BG2_bas_sui_Pal_end
                0x020acc2c                BG2_bas_sui_Pal_size
 .rodata        0x020acc30     0x2104 BG2_bas_sui_Tiles.o
                0x020acc30                BG2_bas_sui_Tiles
                0x020aed30                BG2_bas_sui_Tiles_size
                0x020aed30                BG2_bas_sui_Tiles_end
 .rodata        0x020aed34      0x604 BG2_bas_uru_Map.o
                0x020aed34                BG2_bas_uru_Map
                0x020af334                BG2_bas_uru_Map_size
                0x020af334                BG2_bas_uru_Map_end
 .rodata        0x020af338      0x204 BG2_bas_uru_Pal.o
                0x020af338                BG2_bas_uru_Pal
                0x020af538                BG2_bas_uru_Pal_size
                0x020af538                BG2_bas_uru_Pal_end
 .rodata        0x020af53c     0x22c4 BG2_bas_uru_Tiles.o
                0x020af53c                BG2_bas_uru_Tiles
                0x020b17fc                BG2_bas_uru_Tiles_size
                0x020b17fc                BG2_bas_uru_Tiles_end
 .rodata        0x020b1800      0x604 BG2_bas_usa_Map.o
                0x020b1800                BG2_bas_usa_Map
                0x020b1e00                BG2_bas_usa_Map_size
                0x020b1e00                BG2_bas_usa_Map_end
 .rodata        0x020b1e04      0x204 BG2_bas_usa_Pal.o
                0x020b1e04                BG2_bas_usa_Pal
                0x020b2004                BG2_bas_usa_Pal_end
                0x020b2004                BG2_bas_usa_Pal_size
 .rodata        0x020b2008     0x2544 BG2_bas_usa_Tiles.o
                0x020b2008                BG2_bas_usa_Tiles
                0x020b4548                BG2_bas_usa_Tiles_size
                0x020b4548                BG2_bas_usa_Tiles_end
 .rodata        0x020b454c      0x204 Groupe_Lettres_Pal.o
                0x020b454c                Groupe_Lettres_Pal
                0x020b474c                Groupe_Lettres_Pal_size
                0x020b474c                Groupe_Lettres_Pal_end
 .rodata        0x020b4750    0x10804 Groupe_Lettres_Sprite.o
                0x020b4750                Groupe_Lettres_Sprite
                0x020c4f50                Groupe_Lettres_Sprite_size
                0x020c4f50                Groupe_Lettres_Sprite_end
 .rodata        0x020c4f54      0x204 Signe_Pal.o
                0x020c4f54                Signe_Pal
                0x020c5154                Signe_Pal_end
                0x020c5154                Signe_Pal_size
 .rodata        0x020c5158       0xc4 Signe_Sprite.o
                0x020c5158                Signe_Sprite
                0x020c5218                Signe_Sprite_size
                0x020c5218                Signe_Sprite_end
 .rodata        0x020c521c      0x204 ballon_Pal.o
                0x020c521c                ballon_Pal
                0x020c541c                ballon_Pal_size
                0x020c541c                ballon_Pal_end
 .rodata        0x020c5420     0x7004 ballon_Sprite.o
                0x020c5420                ballon_Sprite
                0x020cc420                ballon_Sprite_size
                0x020cc420                ballon_Sprite_end
 .rodata        0x020cc424      0x204 flags_64_Pal.o
                0x020cc424                flags_64_Pal
                0x020cc624                flags_64_Pal_size
                0x020cc624                flags_64_Pal_end
 .rodata        0x020cc628    0x10804 flags_64_Sprite.o
                0x020cc628                flags_64_Sprite
                0x020dce28                flags_64_Sprite_end
                0x020dce28                flags_64_Sprite_size
 .rodata        0x020dce2c      0x204 flags_Pal.o
                0x020dce2c                flags_Pal
                0x020dd02c                flags_Pal_size
                0x020dd02c                flags_Pal_end
 .rodata        0x020dd030     0x4404 flags_Sprite.o
                0x020dd030                flags_Sprite
                0x020e1430                flags_Sprite_size
                0x020e1430                flags_Sprite_end
 .rodata        0x020e1434      0x204 icones_Pal.o
                0x020e1434                icones_Pal
                0x020e1634                icones_Pal_size
                0x020e1634                icones_Pal_end
 .rodata        0x020e1638     0x2204 icones_Sprite.o
                0x020e1638                icones_Sprite
                0x020e3838                icones_Sprite_end
                0x020e3838                icones_Sprite_size
 .rodata        0x020e383c      0x604 newfont_Map.o
                0x020e383c                newfont_Map
                0x020e3e3c                newfont_Map_size
                0x020e3e3c                newfont_Map_end
 .rodata        0x020e3e40      0x204 newfont_Pal.o
                0x020e3e40                newfont_Pal
                0x020e4040                newfont_Pal_size
                0x020e4040                newfont_Pal_end
 .rodata        0x020e4044      0xfc4 newfont_Tiles.o
                0x020e4044                newfont_Tiles
                0x020e5004                newfont_Tiles_size
                0x020e5004                newfont_Tiles_end
 .rodata        0x020e5008      0x204 nombres_32_Pal.o
                0x020e5008                nombres_32_Pal
                0x020e5208                nombres_32_Pal_size
                0x020e5208                nombres_32_Pal_end
 .rodata        0x020e520c     0x5404 nombres_32_Sprite.o
                0x020e520c                nombres_32_Sprite
                0x020ea60c                nombres_32_Sprite_end
                0x020ea60c                nombres_32_Sprite_size
 .rodata        0x020ea610      0x204 nombres_Pal.o
                0x020ea610                nombres_Pal
                0x020ea810                nombres_Pal_size
                0x020ea810                nombres_Pal_end
 .rodata        0x020ea814     0x1504 nombres_Sprite.o
                0x020ea814                nombres_Sprite
                0x020ebd14                nombres_Sprite_end
                0x020ebd14                nombres_Sprite_size
 .rodata        0x020ebd18      0x204 quitter_Pal.o
                0x020ebd18                quitter_Pal
                0x020ebf18                quitter_Pal_size
                0x020ebf18                quitter_Pal_end
 .rodata        0x020ebf1c      0x304 quitter_Sprite.o
                0x020ebf1c                quitter_Sprite
                0x020ec21c                quitter_Sprite_size
                0x020ec21c                quitter_Sprite_end
 .rodata        0x020ec220    0x2c53c soundbank_bin.o
                0x020ec220                soundbank_bin
                0x02118758                soundbank_bin_size
                0x02118758                soundbank_bin_end
 .rodata        0x0211875c      0x1f4 BG3_bas_connexion_eng.o
                0x0211875c                BG3_bas_connexion_eng
                0x0211894c                BG3_bas_connexion_eng_end
                0x0211894c                BG3_bas_connexion_eng_size
 .rodata        0x02118950      0x1fc BG3_bas_connexion_esp.o
                0x02118950                BG3_bas_connexion_esp
                0x02118b46                BG3_bas_connexion_esp_end
                0x02118b48                BG3_bas_connexion_esp_size
 .rodata        0x02118b4c      0x22c BG3_bas_connexion_fra.o
                0x02118b4c                BG3_bas_connexion_fra
                0x02118d72                BG3_bas_connexion_fra_end
                0x02118d74                BG3_bas_connexion_fra_size
 .rodata        0x02118d78      0x200 BG3_bas_connexion_ger.o
                0x02118d78                BG3_bas_connexion_ger
                0x02118f73                BG3_bas_connexion_ger_end
                0x02118f74                BG3_bas_connexion_ger_size
 .rodata        0x02118f78      0x234 BG3_bas_connexion_ita.o
                0x02118f78                BG3_bas_connexion_ita
                0x021191a6                BG3_bas_connexion_ita_end
                0x021191a8                BG3_bas_connexion_ita_size
 .rodata        0x021191ac     0x2c14 BG3_bas_deux.o
                0x021191ac                BG3_bas_deux
                0x0211bdbb                BG3_bas_deux_end
                0x0211bdbc                BG3_bas_deux_size
 .rodata        0x0211bdc0      0x1f4 BG3_bas_echec_eng.o
                0x0211bdc0                BG3_bas_echec_eng
                0x0211bfae                BG3_bas_echec_eng_end
                0x0211bfb0                BG3_bas_echec_eng_size
 .rodata        0x0211bfb4      0x210 BG3_bas_echec_esp.o
                0x0211bfb4                BG3_bas_echec_esp
                0x0211c1bf                BG3_bas_echec_esp_end
                0x0211c1c0                BG3_bas_echec_esp_size
 .rodata        0x0211c1c4      0x238 BG3_bas_echec_fra.o
                0x0211c1c4                BG3_bas_echec_fra
                0x0211c3f7                BG3_bas_echec_fra_end
                0x0211c3f8                BG3_bas_echec_fra_size
 .rodata        0x0211c3fc      0x248 BG3_bas_echec_ger.o
                0x0211c3fc                BG3_bas_echec_ger
                0x0211c640                BG3_bas_echec_ger_size
                0x0211c640                BG3_bas_echec_ger_end
 .rodata        0x0211c644      0x210 BG3_bas_echec_ita.o
                0x0211c644                BG3_bas_echec_ita
                0x0211c84f                BG3_bas_echec_ita_end
                0x0211c850                BG3_bas_echec_ita_size
 .rodata        0x0211c854     0x1cac BG3_bas_equipes_eng.o
                0x0211c854                BG3_bas_equipes_eng
                0x0211e4fa                BG3_bas_equipes_eng_end
                0x0211e4fc                BG3_bas_equipes_eng_size
 .rodata        0x0211e500     0x1cfc BG3_bas_equipes_esp.o
                0x0211e500                BG3_bas_equipes_esp
                0x021201f5                BG3_bas_equipes_esp_end
                0x021201f8                BG3_bas_equipes_esp_size
 .rodata        0x021201fc     0x1ca8 BG3_bas_equipes_fra.o
                0x021201fc                BG3_bas_equipes_fra
                0x02121e9f                BG3_bas_equipes_fra_end
                0x02121ea0                BG3_bas_equipes_fra_size
 .rodata        0x02121ea4     0x1c98 BG3_bas_equipes_ger.o
                0x02121ea4                BG3_bas_equipes_ger
                0x02123b36                BG3_bas_equipes_ger_end
                0x02123b38                BG3_bas_equipes_ger_size
 .rodata        0x02123b3c     0x1cd4 BG3_bas_equipes_ita.o
                0x02123b3c                BG3_bas_equipes_ita
                0x0212580b                BG3_bas_equipes_ita_end
                0x0212580c                BG3_bas_equipes_ita_size
 .rodata        0x02125810     0x293c BG3_bas_groupes.o
                0x02125810                BG3_bas_groupes
                0x02128145                BG3_bas_groupes_end
                0x02128148                BG3_bas_groupes_size
 .rodata        0x0212814c     0x30a8 BG3_bas_menu_eng.o
                0x0212814c                BG3_bas_menu_eng
                0x0212b1ed                BG3_bas_menu_eng_end
                0x0212b1f0                BG3_bas_menu_eng_size
 .rodata        0x0212b1f4     0x3310 BG3_bas_menu_esp.o
                0x0212b1f4                BG3_bas_menu_esp
                0x0212e4fd                BG3_bas_menu_esp_end
                0x0212e500                BG3_bas_menu_esp_size
 .rodata        0x0212e504     0x34d0 BG3_bas_menu_fra.o
                0x0212e504                BG3_bas_menu_fra
                0x021319d0                BG3_bas_menu_fra_size
                0x021319d0                BG3_bas_menu_fra_end
 .rodata        0x021319d4     0x2fec BG3_bas_menu_ger.o
                0x021319d4                BG3_bas_menu_ger
                0x021349ba                BG3_bas_menu_ger_end
                0x021349bc                BG3_bas_menu_ger_size
 .rodata        0x021349c0     0x3168 BG3_bas_menu_ita.o
                0x021349c0                BG3_bas_menu_ita
                0x02137b23                BG3_bas_menu_ita_end
                0x02137b24                BG3_bas_menu_ita_size
 .rodata        0x02137b28     0x4280 BG3_bas_penalty.o
                0x02137b28                BG3_bas_penalty
                0x0213bda3                BG3_bas_penalty_end
                0x0213bda4                BG3_bas_penalty_size
 .rodata        0x0213bda8     0x298c BG3_bas_quatres.o
                0x0213bda8                BG3_bas_quatres
                0x0213e730                BG3_bas_quatres_size
                0x0213e730                BG3_bas_quatres_end
 .rodata        0x0213e734      0x220 BG3_bas_reussi_eng.o
                0x0213e734                BG3_bas_reussi_eng
                0x0213e94e                BG3_bas_reussi_eng_end
                0x0213e950                BG3_bas_reussi_eng_size
 .rodata        0x0213e954      0x23c BG3_bas_reussi_esp.o
                0x0213e954                BG3_bas_reussi_esp
                0x0213eb89                BG3_bas_reussi_esp_end
                0x0213eb8c                BG3_bas_reussi_esp_size
 .rodata        0x0213eb90      0x21c BG3_bas_reussi_fra.o
                0x0213eb90                BG3_bas_reussi_fra
                0x0213eda5                BG3_bas_reussi_fra_end
                0x0213eda8                BG3_bas_reussi_fra_size
 .rodata        0x0213edac      0x224 BG3_bas_reussi_ger.o
                0x0213edac                BG3_bas_reussi_ger
                0x0213efca                BG3_bas_reussi_ger_end
                0x0213efcc                BG3_bas_reussi_ger_size
 .rodata        0x0213efd0      0x258 BG3_bas_reussi_ita.o
                0x0213efd0                BG3_bas_reussi_ita
                0x0213f221                BG3_bas_reussi_ita_end
                0x0213f224                BG3_bas_reussi_ita_size
 .rodata        0x0213f228     0x46d0 BG3_bas_score.o
                0x0213f228                BG3_bas_score
                0x021438f3                BG3_bas_score_end
                0x021438f4                BG3_bas_score_size
 .rodata        0x021438f8     0x1f60 BG3_bas_stades_eng.o
                0x021438f8                BG3_bas_stades_eng
                0x02145854                BG3_bas_stades_eng_end
                0x02145854                BG3_bas_stades_eng_size
 .rodata        0x02145858     0x1f80 BG3_bas_stades_esp.o
                0x02145858                BG3_bas_stades_esp
                0x021477d2                BG3_bas_stades_esp_end
                0x021477d4                BG3_bas_stades_esp_size
 .rodata        0x021477d8     0x1f64 BG3_bas_stades_fra.o
                0x021477d8                BG3_bas_stades_fra
                0x02149737                BG3_bas_stades_fra_end
                0x02149738                BG3_bas_stades_fra_size
 .rodata        0x0214973c     0x1f44 BG3_bas_stades_ger.o
                0x0214973c                BG3_bas_stades_ger
                0x0214b67b                BG3_bas_stades_ger_end
                0x0214b67c                BG3_bas_stades_ger_size
 .rodata        0x0214b680     0x1f70 BG3_bas_stades_ita.o
                0x0214b680                BG3_bas_stades_ita
                0x0214d5ea                BG3_bas_stades_ita_end
                0x0214d5ec                BG3_bas_stades_ita_size
 .rodata        0x0214d5f0      0x690 BG3_bas_wifi_eng.o
                0x0214d5f0                BG3_bas_wifi_eng
                0x0214dc7b                BG3_bas_wifi_eng_end
                0x0214dc7c                BG3_bas_wifi_eng_size
 .rodata        0x0214dc80      0x7cc BG3_bas_wifi_esp.o
                0x0214dc80                BG3_bas_wifi_esp
                0x0214e445                BG3_bas_wifi_esp_end
                0x0214e448                BG3_bas_wifi_esp_size
 .rodata        0x0214e44c      0x6c4 BG3_bas_wifi_fra.o
                0x0214e44c                BG3_bas_wifi_fra
                0x0214eb0b                BG3_bas_wifi_fra_end
                0x0214eb0c                BG3_bas_wifi_fra_size
 .rodata        0x0214eb10      0x6e0 BG3_bas_wifi_ger.o
                0x0214eb10                BG3_bas_wifi_ger
                0x0214f1e9                BG3_bas_wifi_ger_end
                0x0214f1ec                BG3_bas_wifi_ger_size
 .rodata        0x0214f1f0      0x698 BG3_bas_wifi_ita.o
                0x0214f1f0                BG3_bas_wifi_ita
                0x0214f884                BG3_bas_wifi_ita_end
                0x0214f884                BG3_bas_wifi_ita_size
 .rodata        0x0214f888     0x2cd4 BG3_haut_demi_eng.o
                0x0214f888                BG3_haut_demi_eng
                0x02152556                BG3_haut_demi_eng_end
                0x02152558                BG3_haut_demi_eng_size
 .rodata        0x0215255c     0x2d08 BG3_haut_demi_esp.o
                0x0215255c                BG3_haut_demi_esp
                0x0215525f                BG3_haut_demi_esp_end
                0x02155260                BG3_haut_demi_esp_size
 .rodata        0x02155264     0x2d2c BG3_haut_demi_fra.o
                0x02155264                BG3_haut_demi_fra
                0x02157f8a                BG3_haut_demi_fra_end
                0x02157f8c                BG3_haut_demi_fra_size
 .rodata        0x02157f90     0x2cb4 BG3_haut_demi_ger.o
                0x02157f90                BG3_haut_demi_ger
                0x0215ac3d                BG3_haut_demi_ger_end
                0x0215ac40                BG3_haut_demi_ger_size
 .rodata        0x0215ac44     0x2c90 BG3_haut_demi_ita.o
                0x0215ac44                BG3_haut_demi_ita
                0x0215d8d0                BG3_haut_demi_ita_end
                0x0215d8d0                BG3_haut_demi_ita_size
 .rodata        0x0215d8d4     0x2b38 BG3_haut_finale_eng.o
                0x0215d8d4                BG3_haut_finale_eng
                0x02160406                BG3_haut_finale_eng_end
                0x02160408                BG3_haut_finale_eng_size
 .rodata        0x0216040c     0x2bc0 BG3_haut_finale_esp.o
                0x0216040c                BG3_haut_finale_esp
                0x02162fc7                BG3_haut_finale_esp_end
                0x02162fc8                BG3_haut_finale_esp_size
 .rodata        0x02162fcc     0x2c18 BG3_haut_finale_fra.o
                0x02162fcc                BG3_haut_finale_fra
                0x02165bde                BG3_haut_finale_fra_end
                0x02165be0                BG3_haut_finale_fra_size
 .rodata        0x02165be4     0x2b14 BG3_haut_finale_ger.o
                0x02165be4                BG3_haut_finale_ger
                0x021686f4                BG3_haut_finale_ger_end
                0x021686f4                BG3_haut_finale_ger_size
 .rodata        0x021686f8     0x2b78 BG3_haut_finale_ita.o
                0x021686f8                BG3_haut_finale_ita
                0x0216b26b                BG3_haut_finale_ita_end
                0x0216b26c                BG3_haut_finale_ita_size
 .rodata        0x0216b270     0x1bb0 BG3_haut_groupes_eng.o
                0x0216b270                BG3_haut_groupes_eng
                0x0216ce1b                BG3_haut_groupes_eng_end
                0x0216ce1c                BG3_haut_groupes_eng_size
 .rodata        0x0216ce20     0x1bc0 BG3_haut_groupes_esp.o
                0x0216ce20                BG3_haut_groupes_esp
                0x0216e9d9                BG3_haut_groupes_esp_end
                0x0216e9dc                BG3_haut_groupes_esp_size
 .rodata        0x0216e9e0     0x1b84 BG3_haut_groupes_fra.o
                0x0216e9e0                BG3_haut_groupes_fra
                0x0217055f                BG3_haut_groupes_fra_end
                0x02170560                BG3_haut_groupes_fra_size
 .rodata        0x02170564     0x1b8c BG3_haut_groupes_ger.o
                0x02170564                BG3_haut_groupes_ger
                0x021720eb                BG3_haut_groupes_ger_end
                0x021720ec                BG3_haut_groupes_ger_size
 .rodata        0x021720f0     0x1b90 BG3_haut_groupes_ita.o
                0x021720f0                BG3_haut_groupes_ita
                0x02173c79                BG3_haut_groupes_ita_end
                0x02173c7c                BG3_haut_groupes_ita_size
 .rodata        0x02173c80     0x2c84 BG3_haut_huitieme_eng.o
                0x02173c80                BG3_haut_huitieme_eng
                0x021768ff                BG3_haut_huitieme_eng_end
                0x02176900                BG3_haut_huitieme_eng_size
 .rodata        0x02176904     0x2e14 BG3_haut_huitieme_esp.o
                0x02176904                BG3_haut_huitieme_esp
                0x02179711                BG3_haut_huitieme_esp_end
                0x02179714                BG3_haut_huitieme_esp_size
 .rodata        0x02179718     0x2ef4 BG3_haut_huitieme_fra.o
                0x02179718                BG3_haut_huitieme_fra
                0x0217c607                BG3_haut_huitieme_fra_end
                0x0217c608                BG3_haut_huitieme_fra_size
 .rodata        0x0217c60c     0x2cfc BG3_haut_huitieme_ger.o
                0x0217c60c                BG3_haut_huitieme_ger
                0x0217f301                BG3_haut_huitieme_ger_end
                0x0217f304                BG3_haut_huitieme_ger_size
 .rodata        0x0217f308     0x2e08 BG3_haut_huitieme_ita.o
                0x0217f308                BG3_haut_huitieme_ita
                0x0218210b                BG3_haut_huitieme_ita_end
                0x0218210c                BG3_haut_huitieme_ita_size
 .rodata        0x02182110     0x2d6c BG3_haut_quart_eng.o
                0x02182110                BG3_haut_quart_eng
                0x02184e77                BG3_haut_quart_eng_end
                0x02184e78                BG3_haut_quart_eng_size
 .rodata        0x02184e7c     0x2df8 BG3_haut_quart_esp.o
                0x02184e7c                BG3_haut_quart_esp
                0x02187c6e                BG3_haut_quart_esp_end
                0x02187c70                BG3_haut_quart_esp_size
 .rodata        0x02187c74     0x2de8 BG3_haut_quart_fra.o
                0x02187c74                BG3_haut_quart_fra
                0x0218aa57                BG3_haut_quart_fra_end
                0x0218aa58                BG3_haut_quart_fra_size
 .rodata        0x0218aa5c     0x2d20 BG3_haut_quart_ger.o
                0x0218aa5c                BG3_haut_quart_ger
                0x0218d778                BG3_haut_quart_ger_size
                0x0218d778                BG3_haut_quart_ger_end
 .rodata        0x0218d77c     0x2dbc BG3_haut_quart_ita.o
                0x0218d77c                BG3_haut_quart_ita
                0x02190534                BG3_haut_quart_ita_size
                0x02190534                BG3_haut_quart_ita_end
 .rodata        0x02190538     0x307c BG3_haut_titre.o
                0x02190538                BG3_haut_titre
                0x021935af                BG3_haut_titre_end
                0x021935b0                BG3_haut_titre_size
 .rodata        0x021935b4     0xaab8 amazonia.o
                0x021935b4                amazonia
                0x0219e068                amazonia_end
                0x0219e068                amazonia_size
 .rodata        0x0219e06c     0xb1bc baixada.o
                0x0219e06c                baixada
                0x021a9221                baixada_end
                0x021a9224                baixada_size
 .rodata        0x021a9228     0xb124 beirario.o
                0x021a9228                beirario
                0x021b4348                beirario_size
                0x021b4348                beirario_end
 .rodata        0x021b434c      0x194 black.o
                0x021b434c                black
                0x021b44da                black_end
                0x021b44dc                black_size
 .rodata        0x021b44e0     0xa8e8 castelao.o
                0x021b44e0                castelao
                0x021bedc4                castelao_size
                0x021bedc4                castelao_end
 .rodata        0x021bedc8      0x99c credits.o
                0x021bedc8                credits
                0x021bf75f                credits_end
                0x021bf760                credits_size
 .rodata        0x021bf764     0x2038 devkitpro.o
                0x021bf764                devkitpro
                0x021c1796                devkitpro_end
                0x021c1798                devkitpro_size
 .rodata        0x021c179c     0xb1ec dunas.o
                0x021c179c                dunas
                0x021cc982                dunas_end
                0x021cc984                dunas_size
 .rodata        0x021cc988     0x9db0 fontenova.o
                0x021cc988                fontenova
                0x021d6732                fontenova_end
                0x021d6734                fontenova_size
 .rodata        0x021d6738     0x19f4 intro1.o
                0x021d6738                intro1
                0x021d8127                intro1_end
                0x021d8128                intro1_size
 .rodata        0x021d812c     0x19e4 intro2.o
                0x021d812c                intro2
                0x021d9b0b                intro2_end
                0x021d9b0c                intro2_size
 .rodata        0x021d9b10     0x1a3c intro3.o
                0x021d9b10                intro3
                0x021db545                intro3_end
                0x021db548                intro3_size
 .rodata        0x021db54c      0x3d0 licensed.o
                0x021db54c                licensed
                0x021db915                licensed_end
                0x021db918                licensed_size
 .rodata        0x021db91c     0x7e18 maracana.o
                0x021db91c                maracana
                0x021e372e                maracana_end
                0x021e3730                maracana_size
 .rodata        0x021e3734     0xaaf0 mineirao.o
                0x021e3734                mineirao
                0x021ee220                mineirao_size
                0x021ee220                mineirao_end
 .rodata        0x021ee224     0xb308 nacional.o
                0x021ee224                nacional
                0x021f9526                nacional_end
                0x021f9528                nacional_size
 .rodata        0x021f952c     0x5708 palib.o
                0x021f952c                palib
                0x021fec2e                palib_end
                0x021fec30                palib_size
 .rodata        0x021fec34     0x9564 pantanal.o
                0x021fec34                pantanal
                0x02208193                pantanal_end
                0x02208194                pantanal_size
 .rodata        0x02208198     0xaacc pernambuco.o
                0x02208198                pernambuco
                0x02212c5e                pernambuco_end
                0x02212c60                pernambuco_size
 .rodata        0x02212c64     0x8e50 saopaulo.o
                0x02212c64                saopaulo
                0x0221baae                saopaulo_end
                0x0221bab0                saopaulo_size
 .rodata        0x0221bab4       0x20 BG2_bas_alg.o
                0x0221bab4                BG2_bas_alg
 .rodata        0x0221bad4       0x20 BG2_bas_amazonia.o
                0x0221bad4                BG2_bas_amazonia
 .rodata        0x0221baf4       0x20 BG2_bas_arg.o
                0x0221baf4                BG2_bas_arg
 .rodata        0x0221bb14       0x20 BG2_bas_aus.o
                0x0221bb14                BG2_bas_aus
 .rodata        0x0221bb34       0x20 BG2_bas_baixada.o
                0x0221bb34                BG2_bas_baixada
 .rodata        0x0221bb54       0x20 BG2_bas_beirario.o
                0x0221bb54                BG2_bas_beirario
 .rodata        0x0221bb74       0x20 BG2_bas_bel.o
                0x0221bb74                BG2_bas_bel
 .rodata        0x0221bb94       0x20 BG2_bas_bih.o
                0x0221bb94                BG2_bas_bih
 .rodata        0x0221bbb4       0x20 BG2_bas_bra.o
                0x0221bbb4                BG2_bas_bra
 .rodata        0x0221bbd4       0x20 BG2_bas_castelao.o
                0x0221bbd4                BG2_bas_castelao
 .rodata        0x0221bbf4       0x20 BG2_bas_chi.o
                0x0221bbf4                BG2_bas_chi
 .rodata        0x0221bc14       0x20 BG2_bas_civ.o
                0x0221bc14                BG2_bas_civ
 .rodata        0x0221bc34       0x20 BG2_bas_cmr.o
                0x0221bc34                BG2_bas_cmr
 .rodata        0x0221bc54       0x20 BG2_bas_col.o
                0x0221bc54                BG2_bas_col
 .rodata        0x0221bc74       0x20 BG2_bas_crc.o
                0x0221bc74                BG2_bas_crc
 .rodata        0x0221bc94       0x20 BG2_bas_cro.o
                0x0221bc94                BG2_bas_cro
 .rodata        0x0221bcb4       0x20 BG2_bas_dasdunas.o
                0x0221bcb4                BG2_bas_dasdunas
 .rodata        0x0221bcd4       0x20 BG2_bas_ecu.o
                0x0221bcd4                BG2_bas_ecu
 .rodata        0x0221bcf4       0x20 BG2_bas_eng.o
                0x0221bcf4                BG2_bas_eng
 .rodata        0x0221bd14       0x20 BG2_bas_esp.o
                0x0221bd14                BG2_bas_esp
 .rodata        0x0221bd34       0x20 BG2_bas_fontenova.o
                0x0221bd34                BG2_bas_fontenova
 .rodata        0x0221bd54       0x20 BG2_bas_fra.o
                0x0221bd54                BG2_bas_fra
 .rodata        0x0221bd74       0x20 BG2_bas_ger.o
                0x0221bd74                BG2_bas_ger
 .rodata        0x0221bd94       0x20 BG2_bas_gha.o
                0x0221bd94                BG2_bas_gha
 .rodata        0x0221bdb4       0x20 BG2_bas_gre.o
                0x0221bdb4                BG2_bas_gre
 .rodata        0x0221bdd4       0x20 BG2_bas_hon.o
                0x0221bdd4                BG2_bas_hon
 .rodata        0x0221bdf4       0x20 BG2_bas_irn.o
                0x0221bdf4                BG2_bas_irn
 .rodata        0x0221be14       0x20 BG2_bas_ita.o
                0x0221be14                BG2_bas_ita
 .rodata        0x0221be34       0x20 BG2_bas_jpn.o
                0x0221be34                BG2_bas_jpn
 .rodata        0x0221be54       0x20 BG2_bas_kor.o
                0x0221be54                BG2_bas_kor
 .rodata        0x0221be74       0x20 BG2_bas_maracana.o
                0x0221be74                BG2_bas_maracana
 .rodata        0x0221be94       0x20 BG2_bas_mex.o
                0x0221be94                BG2_bas_mex
 .rodata        0x0221beb4       0x20 BG2_bas_mineirao.o
                0x0221beb4                BG2_bas_mineirao
 .rodata        0x0221bed4       0x20 BG2_bas_nacional.o
                0x0221bed4                BG2_bas_nacional
 .rodata        0x0221bef4       0x20 BG2_bas_ned.o
                0x0221bef4                BG2_bas_ned
 .rodata        0x0221bf14       0x20 BG2_bas_nga.o
                0x0221bf14                BG2_bas_nga
 .rodata        0x0221bf34       0x20 BG2_bas_pantanal.o
                0x0221bf34                BG2_bas_pantanal
 .rodata        0x0221bf54       0x20 BG2_bas_pernambuco.o
                0x0221bf54                BG2_bas_pernambuco
 .rodata        0x0221bf74       0x20 BG2_bas_por.o
                0x0221bf74                BG2_bas_por
 .rodata        0x0221bf94       0x20 BG2_bas_rus.o
                0x0221bf94                BG2_bas_rus
 .rodata        0x0221bfb4       0x20 BG2_bas_saopaulo.o
                0x0221bfb4                BG2_bas_saopaulo
 .rodata        0x0221bfd4       0x20 BG2_bas_selection.o
                0x0221bfd4                BG2_bas_selection
 .rodata        0x0221bff4       0x20 BG2_bas_sui.o
                0x0221bff4                BG2_bas_sui
 .rodata        0x0221c014       0x20 BG2_bas_uru.o
                0x0221c014                BG2_bas_uru
 .rodata        0x0221c034       0x20 BG2_bas_usa.o
                0x0221c034                BG2_bas_usa
 .rodata        0x0221c054       0x20 newfont.o
                0x0221c054                newfont
 .rodata        0x0221c074       0x10 c:/devkitPro/PAlib/lib\libpa9.a(PA_Gif.o)
                0x0221c074                InterlacedOffset
                0x0221c07c                InterlacedJumps
 .rodata        0x0221c084       0x40 c:/devkitPro/PAlib/lib\libpa9.a(PA_Inits.o)
                0x0221c084                winfades
 .rodata        0x0221c0c4      0x400 c:/devkitPro/PAlib/lib\libpa9.a(PA_Math.o)
                0x0221c0c4                PA_SIN
 .rodata        0x0221c4c4       0x30 c:/devkitPro/PAlib/lib\libpa9.a(PA_Sprite.o)
                0x0221c4c4                PA_size
                0x0221c4dc                PA_obj_sizes
 .rodata        0x0221c4f4       0x1c c:/devkitPro/PAlib/lib\libpa9.a(dgif_lib.o)
 .rodata        0x0221c510      0x1c4 c:/devkitPro/PAlib/lib\libpa9.a(gif_err.o)
 .rodata        0x0221c6d4       0x20 c:/devkitPro/PAlib/lib\libpa9.a(PA_TiledFont.o)
                0x0221c6d4                PA_TiledFont
 .rodata        0x0221c6f4       0x20 c:/devkitPro/PAlib/lib\libpa9.a(PA_BmpFont0.o)
                0x0221c6f4                PA_BmpFont0
 .rodata        0x0221c714       0x20 c:/devkitPro/PAlib/lib\libpa9.a(PA_BmpFont1.o)
                0x0221c714                PA_BmpFont1
 .rodata        0x0221c734       0x20 c:/devkitPro/PAlib/lib\libpa9.a(PA_BmpFont2.o)
                0x0221c734                PA_BmpFont2
 .rodata        0x0221c754       0x20 c:/devkitPro/PAlib/lib\libpa9.a(PA_BmpFont3.o)
                0x0221c754                PA_BmpFont3
 .rodata        0x0221c774       0x20 c:/devkitPro/PAlib/lib\libpa9.a(PA_BmpFont4.o)
                0x0221c774                PA_BmpFont4
 .rodata        0x0221c794      0x604 c:/devkitPro/PAlib/lib\libpa9.a(PA_TiledFont_Map.bin.o)
                0x0221c794                PA_TiledFont_Map
                0x0221cd94                PA_TiledFont_Map_size
                0x0221cd94                PA_TiledFont_Map_end
 .rodata        0x0221cd98      0x204 c:/devkitPro/PAlib/lib\libpa9.a(PA_TiledFont_Pal.bin.o)
                0x0221cd98                PA_TiledFont_Pal
                0x0221cf98                PA_TiledFont_Pal_end
                0x0221cf98                PA_TiledFont_Pal_size
 .rodata        0x0221cf9c     0x33c4 c:/devkitPro/PAlib/lib\libpa9.a(PA_TiledFont_Tiles.bin.o)
                0x0221cf9c                PA_TiledFont_Tiles
                0x0222035c                PA_TiledFont_Tiles_size
                0x0222035c                PA_TiledFont_Tiles_end
 .rodata        0x02220360      0x204 c:/devkitPro/PAlib/lib\libpa9.a(PA_BmpFont0_Map.bin.o)
                0x02220360                PA_BmpFont0_Map
                0x02220560                PA_BmpFont0_Map_end
                0x02220560                PA_BmpFont0_Map_size
 .rodata        0x02220564      0x104 c:/devkitPro/PAlib/lib\libpa9.a(PA_BmpFont0_Sizes.bin.o)
                0x02220564                PA_BmpFont0_Sizes
                0x02220664                PA_BmpFont0_Sizes_size
                0x02220664                PA_BmpFont0_Sizes_end
 .rodata        0x02220668      0x324 c:/devkitPro/PAlib/lib\libpa9.a(PA_BmpFont0_Tiles.bin.o)
                0x02220668                PA_BmpFont0_Tiles
                0x02220988                PA_BmpFont0_Tiles_size
                0x02220988                PA_BmpFont0_Tiles_end
 .rodata        0x0222098c      0x204 c:/devkitPro/PAlib/lib\libpa9.a(PA_BmpFont1_Map.bin.o)
                0x0222098c                PA_BmpFont1_Map
                0x02220b8c                PA_BmpFont1_Map_end
                0x02220b8c                PA_BmpFont1_Map_size
 .rodata        0x02220b90      0x104 c:/devkitPro/PAlib/lib\libpa9.a(PA_BmpFont1_Sizes.bin.o)
                0x02220b90                PA_BmpFont1_Sizes
                0x02220c90                PA_BmpFont1_Sizes_size
                0x02220c90                PA_BmpFont1_Sizes_end
 .rodata        0x02220c94      0x34c c:/devkitPro/PAlib/lib\libpa9.a(PA_BmpFont1_Tiles.bin.o)
                0x02220c94                PA_BmpFont1_Tiles
                0x02220fdc                PA_BmpFont1_Tiles_end
                0x02220fdc                PA_BmpFont1_Tiles_size
 .rodata        0x02220fe0      0x804 c:/devkitPro/PAlib/lib\libpa9.a(PA_BmpFont2_Map.bin.o)
                0x02220fe0                PA_BmpFont2_Map
                0x022217e0                PA_BmpFont2_Map_size
                0x022217e0                PA_BmpFont2_Map_end
 .rodata        0x022217e4      0x104 c:/devkitPro/PAlib/lib\libpa9.a(PA_BmpFont2_Sizes.bin.o)
                0x022217e4                PA_BmpFont2_Sizes
                0x022218e4                PA_BmpFont2_Sizes_end
                0x022218e4                PA_BmpFont2_Sizes_size
 .rodata        0x022218e8      0x39c c:/devkitPro/PAlib/lib\libpa9.a(PA_BmpFont2_Tiles.bin.o)
                0x022218e8                PA_BmpFont2_Tiles
                0x02221c80                PA_BmpFont2_Tiles_size
                0x02221c80                PA_BmpFont2_Tiles_end
 .rodata        0x02221c84      0x804 c:/devkitPro/PAlib/lib\libpa9.a(PA_BmpFont3_Map.bin.o)
                0x02221c84                PA_BmpFont3_Map
                0x02222484                PA_BmpFont3_Map_end
                0x02222484                PA_BmpFont3_Map_size
 .rodata        0x02222488      0x104 c:/devkitPro/PAlib/lib\libpa9.a(PA_BmpFont3_Sizes.bin.o)
                0x02222488                PA_BmpFont3_Sizes
                0x02222588                PA_BmpFont3_Sizes_end
                0x02222588                PA_BmpFont3_Sizes_size
 .rodata        0x0222258c      0x624 c:/devkitPro/PAlib/lib\libpa9.a(PA_BmpFont3_Tiles.bin.o)
                0x0222258c                PA_BmpFont3_Tiles
                0x02222bac                PA_BmpFont3_Tiles_end
                0x02222bac                PA_BmpFont3_Tiles_size
 .rodata        0x02222bb0      0x804 c:/devkitPro/PAlib/lib\libpa9.a(PA_BmpFont4_Map.bin.o)
                0x02222bb0                PA_BmpFont4_Map
                0x022233b0                PA_BmpFont4_Map_size
                0x022233b0                PA_BmpFont4_Map_end
 .rodata        0x022233b4      0x104 c:/devkitPro/PAlib/lib\libpa9.a(PA_BmpFont4_Sizes.bin.o)
                0x022233b4                PA_BmpFont4_Sizes
                0x022234b4                PA_BmpFont4_Sizes_end
                0x022234b4                PA_BmpFont4_Sizes_size
 .rodata        0x022234b8      0x834 c:/devkitPro/PAlib/lib\libpa9.a(PA_BmpFont4_Tiles.bin.o)
                0x022234b8                PA_BmpFont4_Tiles
                0x02223ce8                PA_BmpFont4_Tiles_size
                0x02223ce8                PA_BmpFont4_Tiles_end
 .rodata        0x02223cec       0xf0 c:/devkitPro/PAlib/lib\libpa9.a(PA_Keyboard.o)
                0x02223cec                PA_Keyboard
 .rodata        0x02223ddc     0x2000 c:/devkitPro/PAlib/lib\libpa9.a(keyboard.map.o)
                0x02223ddc                keyboard_Map
 .rodata        0x02225ddc       0x20 c:/devkitPro/PAlib/lib\libpa9.a(keyboard.pal.o)
                0x02225ddc                keyboard_Palette
 .rodata        0x02225dfc     0x28a0 c:/devkitPro/PAlib/lib\libpa9.a(keyboard.raw.o)
                0x02225dfc                keyboard_Tiles
 .rodata        0x0222869c       0x5c c:/devkitPro/libnds/lib\libfat.a(libfat.o)
 .rodata        0x022286f8        0x4 c:/devkitPro/libnds/lib\libfat.a(partition.o)
 .rodata        0x022286fc       0x54 c:/devkitPro/libnds/lib\libfat.a(directory.o)
 .rodata        0x02228750       0x10 c:/devkitPro/libnds/lib\libfat.a(disc.o)
                0x02228750                _FAT_disc_interfaces
 .rodata        0x02228760       0x40 c:/devkitPro/libnds/lib\libnds9.a(gurumeditation.o)
 .rodata        0x022287a0        0xc c:/devkitPro/libnds/lib\libnds9.a(dldi.o)
                0x022287a0                DLDI_MAGIC_STRING_BACKWARDS
                0x022287a8                DLDI_MAGIC_NUMBER
 .rodata        0x022287ac      0x1e8 c:/devkitPro/libnds/lib\libnds9.a(console.o)
 .rodata        0x02228994     0x2004 c:/devkitPro/libnds/lib\libnds9.a(default_font.bin.o)
                0x02228994                default_font_bin
                0x0222a994                default_font_bin_size
                0x0222a994                default_font_bin_end
 .rodata        0x0222a998       0x14 c:/devkitPro/libnds/lib\libdswifi9.a(wifi_arm9.o)
 .rodata        0x0222a9ac       0x54 c:/devkitPro/libnds/lib\libdswifi9.a(sgIP_TCP.o)
 .rodata        0x0222aa00        0x4 c:/devkitpro/devkitarm/bin/../lib/gcc/arm-eabi/4.4.3/../../../../arm-eabi/lib/thumb\libg.a(lib_a-impure.o)
                0x0222aa00                _global_impure_ptr
 .rodata        0x0222aa04      0x128 c:/devkitpro/devkitarm/bin/../lib/gcc/arm-eabi/4.4.3/../../../../arm-eabi/lib/thumb\libg.a(lib_a-locale.o)
 .rodata        0x0222ab2c       0xa8 c:/devkitpro/devkitarm/bin/../lib/gcc/arm-eabi/4.4.3/../../../../arm-eabi/lib/thumb\libg.a(lib_a-mbtowc_r.o)
 .rodata        0x0222abd4       0x60 c:/devkitpro/devkitarm/bin/../lib/gcc/arm-eabi/4.4.3/../../../../arm-eabi/lib/thumb\libg.a(lib_a-mktime.o)
 .rodata        0x0222ac34       0x68 c:/devkitpro/devkitarm/bin/../lib/gcc/arm-eabi/4.4.3/../../../../arm-eabi/lib/thumb\libg.a(lib_a-mktm_r.o)
 .rodata        0x0222ac9c      0x340 c:/devkitpro/devkitarm/bin/../lib/gcc/arm-eabi/4.4.3/../../../../arm-eabi/lib/thumb\libg.a(lib_a-svfiscanf.o)
 .rodata        0x0222afdc      0x184 c:/devkitpro/devkitarm/bin/../lib/gcc/arm-eabi/4.4.3/../../../../arm-eabi/lib/thumb\libg.a(lib_a-svfprintf.o)
 .rodata        0x0222b160      0x310 c:/devkitpro/devkitarm/bin/../lib/gcc/arm-eabi/4.4.3/../../../../arm-eabi/lib/thumb\libg.a(lib_a-towlower.o)
 .rodata        0x0222b470      0x2b8 c:/devkitpro/devkitarm/bin/../lib/gcc/arm-eabi/4.4.3/../../../../arm-eabi/lib/thumb\libg.a(lib_a-towupper.o)
 .rodata        0x0222b728      0x184 c:/devkitpro/devkitarm/bin/../lib/gcc/arm-eabi/4.4.3/../../../../arm-eabi/lib/thumb\libg.a(lib_a-vfiprintf.o)
 .rodata        0x0222b8ac      0x184 c:/devkitpro/devkitarm/bin/../lib/gcc/arm-eabi/4.4.3/../../../../arm-eabi/lib/thumb\libg.a(lib_a-vfprintf.o)
 .rodata        0x0222ba30      0x104 c:/devkitpro/devkitarm/bin/../lib/gcc/arm-eabi/4.4.3/../../../../arm-eabi/lib/thumb\libg.a(lib_a-ctype_.o)
                0x0222ba30                _ctype_
 .rodata        0x0222bb34     0x34f0 c:/devkitpro/devkitarm/bin/../lib/gcc/arm-eabi/4.4.3/../../../../arm-eabi/lib/thumb\libg.a(lib_a-jp2uc.o)
 *fill*         0x0222f024        0x4 ff
 .rodata        0x0222f028      0x128 c:/devkitpro/devkitarm/bin/../lib/gcc/arm-eabi/4.4.3/../../../../arm-eabi/lib/thumb\libg.a(lib_a-mprec.o)
                0x0222f028                __mprec_tens
                0x0222f100                __mprec_bigtens
                0x0222f128                __mprec_tinytens
 .rodata        0x0222f150      0x184 c:/devkitpro/devkitarm/bin/../lib/gcc/arm-eabi/4.4.3/../../../../arm-eabi/lib/thumb\libg.a(lib_a-svfiprintf.o)
 .rodata        0x0222f2d4       0x64 c:/devkitpro/devkitarm/bin/../lib/gcc/arm-eabi/4.4.3/../../../../arm-eabi/lib/thumb\libsysbase.a(iosupport.o)
                0x0222f2d4                dotab_stdnull
 .rodata        0x0222f338        0xc c:/devkitpro/devkitarm/bin/../lib/gcc/arm-eabi/4.4.3/../../../../arm-eabi/lib/thumb\libsysbase.a(chdir.o)
                0x0222f338                DIRECTORY_PARENT
                0x0222f33c                DIRECTORY_SEPARATOR
                0x0222f340                DIRECTORY_THIS
 *all.rodata*(*)
 *(.roda)
 *(.rodata.*)
 .rodata.str1.4
                0x0222f344       0x8c ky_geturl.o
                                 0x90 (size before relaxing)
 .rodata.str1.4
                0x0222f3d0     0x12a1 main.o
                               0x12b4 (size before relaxing)
 *fill*         0x02230671        0x3 ff
 .rodata.str1.4
                0x02230674      0x18f c:/devkitPro/PAlib/lib\libpa9.a(PA_BgTiles.o)
                                0x190 (size before relaxing)
 *fill*         0x02230803        0x1 ff
 .rodata.str1.4
                0x02230804       0x26 c:/devkitPro/PAlib/lib\libpa9.a(PA_Error.o)
                                 0x28 (size before relaxing)
 *fill*         0x0223082a        0x2 ff
 .rodata.str1.4
                0x0223082c      0x1a3 c:/devkitPro/PAlib/lib\libpa9.a(PA_Gif.o)
                                0x1a4 (size before relaxing)
 .rodata.str1.4
                0x00000000      0x1a3 c:/devkitPro/PAlib/lib\libpa9.a(PA_Inits.o)
                                  0x4 (size before relaxing)
 *fill*         0x022309cf        0x1 ff
 .rodata.str1.4
                0x022309d0      0x12f c:/devkitPro/PAlib/lib\libpa9.a(PA_NewBg.o)
                                0x130 (size before relaxing)
 *fill*         0x02230aff        0x1 ff
 .rodata.str1.4
                0x02230b00      0x234 c:/devkitPro/PAlib/lib\libpa9.a(PA_Sprite.o)
 .rodata.str1.4
                0x02230d34        0x6 c:/devkitPro/PAlib/lib\libpa9.a(PA_Stuff.o)
                                  0xc (size before relaxing)
 *fill*         0x02230d3a        0x2 ff
 .rodata.str1.4
                0x02230d3c      0x292 c:/devkitPro/PAlib/lib\libpa9.a(gif_err.o)
                                0x294 (size before relaxing)
 *fill*         0x02230fce        0x2 ff
 .rodata.str1.4
                0x02230fd0       0x10 c:/devkitPro/libnds/lib\libfat.a(libfat.o)
 .rodata.str1.4
                0x02230fe0        0xa c:/devkitPro/libnds/lib\libfat.a(partition.o)
                                 0x10 (size before relaxing)
 .rodata.str1.4
                0x00000000        0x8 c:/devkitPro/libnds/lib\libfat.a(directory.o)
 .rodata.str1.4
                0x00000000        0x4 c:/devkitPro/libnds/lib\libfat.a(disc.o)
 *fill*         0x02230fea        0x2 ff
 .rodata.str1.4
                0x02230fec       0xd8 c:/devkitPro/libnds/lib\libnds9.a(gurumeditation.o)
                                 0xdc (size before relaxing)
 .rodata.str1.4
                0x022310c4       0x49 c:/devkitPro/libnds/lib\libnds9.a(console.o)
                                 0x4c (size before relaxing)
 *fill*         0x0223110d        0x3 ff
 .rodata.str1.4
                0x02231110       0xb6 c:/devkitPro/libnds/lib\libdswifi9.a(wifi_arm9.o)
                                 0xb8 (size before relaxing)
 *fill*         0x022311c6        0x2 ff
 .rodata.str1.4
                0x022311c8       0x17 c:/devkitPro/libnds/lib\libdswifi9.a(sgIP_DHCP.o)
                                 0x18 (size before relaxing)
 .rodata.str1.4
                0x00000000        0x4 c:/devkitpro/devkitarm/bin/../lib/gcc/arm-eabi/4.4.3/../../../../arm-eabi/lib/thumb\libg.a(lib_a-impure.o)
 *fill*         0x022311df        0x1 ff
 .rodata.str1.4
                0x022311e0       0xe0 c:/devkitpro/devkitarm/bin/../lib/gcc/arm-eabi/4.4.3/../../../../arm-eabi/lib/thumb\libg.a(lib_a-locale.o)
                                 0xf0 (size before relaxing)
 .rodata.str1.4
                0x00000000        0x4 c:/devkitpro/devkitarm/bin/../lib/gcc/arm-eabi/4.4.3/../../../../arm-eabi/lib/thumb\libg.a(lib_a-mbrtowc.o)
 .rodata.str1.4
                0x022312c0       0x3f c:/devkitpro/devkitarm/bin/../lib/gcc/arm-eabi/4.4.3/../../../../arm-eabi/lib/thumb\libg.a(lib_a-svfprintf.o)
                                 0x44 (size before relaxing)
 *fill*         0x022312ff        0x1 ff
 .rodata.str1.4
                0x02231300        0x4 c:/devkitpro/devkitarm/bin/../lib/gcc/arm-eabi/4.4.3/../../../../arm-eabi/lib/thumb\libg.a(lib_a-tzvars.o)
 .rodata.str1.4
                0x00000000       0x30 c:/devkitpro/devkitarm/bin/../lib/gcc/arm-eabi/4.4.3/../../../../arm-eabi/lib/thumb\libg.a(lib_a-vfiprintf.o)
 .rodata.str1.4
                0x00000000       0x44 c:/devkitpro/devkitarm/bin/../lib/gcc/arm-eabi/4.4.3/../../../../arm-eabi/lib/thumb\libg.a(lib_a-vfprintf.o)
 .rodata.str1.4
                0x02231304       0x10 c:/devkitpro/devkitarm/bin/../lib/gcc/arm-eabi/4.4.3/../../../../arm-eabi/lib/thumb\libg.a(lib_a-dtoa.o)
                                 0x14 (size before relaxing)
 .rodata.str1.4
                0x00000000       0x14 c:/devkitpro/devkitarm/bin/../lib/gcc/arm-eabi/4.4.3/../../../../arm-eabi/lib/thumb\libg.a(lib_a-jp2uc.o)
 .rodata.str1.4
                0x00000000       0x30 c:/devkitpro/devkitarm/bin/../lib/gcc/arm-eabi/4.4.3/../../../../arm-eabi/lib/thumb\libg.a(lib_a-svfiprintf.o)
 .rodata.str1.4
                0x02231314        0x8 c:/devkitpro/devkitarm/bin/../lib/gcc/arm-eabi/4.4.3/../../../../arm-eabi/lib/thumb\libsysbase.a(iosupport.o)
 *(.gnu.linkonce.r*)
                0x0223131c                . = ALIGN (0x4)

.ARM.extab
 *(.ARM.extab* .gnu.linkonce.armextab.*)
                0x0223131c                __exidx_start = .

.ARM.exidx
 *(.ARM.exidx* .gnu.linkonce.armexidx.*)
                0x0223131c                __exidx_end = .
                0x0223131c                . = ALIGN (0x4)
                0x0223131c                PROVIDE (__preinit_array_start, .)

.preinit_array
 *(.preinit_array)
                0x0223131c                PROVIDE (__preinit_array_end, .)
                0x0223131c                PROVIDE (__init_array_start, .)

.init_array     0x0223131c        0x4
 *(SORT(.init_array.*))
 *(.init_array)
 .init_array    0x0223131c        0x4 c:/devkitpro/devkitarm/bin/../lib/gcc/arm-eabi/4.4.3/thumb/crtbegin.o
                0x02231320                PROVIDE (__init_array_end, .)
                0x02231320                PROVIDE (__fini_array_start, .)

.fini_array     0x02231320        0x4
 *(.fini_array)
 .fini_array    0x02231320        0x4 c:/devkitpro/devkitarm/bin/../lib/gcc/arm-eabi/4.4.3/thumb/crtbegin.o
 *(SORT(.fini_array.*))
                0x02231324                PROVIDE (__fini_array_end, .)

.ctors          0x02231324        0x0
 *crtbegin.o(.ctors)
 *(EXCLUDE_FILE(*crtend.o) .ctors)
 *(SORT(.ctors.*))
 *(.ctors)
                0x02231324                . = ALIGN (0x4)

.dtors          0x02231324        0x0
 *crtbegin.o(.dtors)
 *(EXCLUDE_FILE(*crtend.o) .dtors)
 *(SORT(.dtors.*))
 *(.dtors)
                0x02231324                . = ALIGN (0x4)

.eh_frame       0x02231324        0x4
 *(.eh_frame)
 .eh_frame      0x02231324        0x0 c:/devkitpro/devkitarm/bin/../lib/gcc/arm-eabi/4.4.3/thumb/crtbegin.o
 .eh_frame      0x02231324        0x4 c:/devkitpro/devkitarm/bin/../lib/gcc/arm-eabi/4.4.3/thumb/crtend.o
                0x02231328                . = ALIGN (0x4)

.gcc_except_table
                0x02231328        0x0
 *(.gcc_except_table)
                0x02231328                . = ALIGN (0x4)

.jcr            0x02231328        0x4
 *(.jcr)
 .jcr           0x02231328        0x0 c:/devkitpro/devkitarm/bin/../lib/gcc/arm-eabi/4.4.3/thumb/crtbegin.o
 .jcr           0x02231328        0x4 c:/devkitpro/devkitarm/bin/../lib/gcc/arm-eabi/4.4.3/thumb/crtend.o

.got
 *(.got.plt)
 *(.got)
 *(.rel.got)

.ewram          0x0223132c        0x0
                0x0223132c                __ewram_start = ABSOLUTE (.)
 *(.ewram)
 *ewram.*(.text)
                0x0223132c                . = ALIGN (0x4)

.data           0x0223132c     0x1544
                0x0223132c                __data_start = ABSOLUTE (.)
 *(.data)
 .data          0x0223132c        0x0 c:/devkitpro/devkitarm/bin/../lib/gcc/arm-eabi/4.4.3/../../../../arm-eabi/lib/thumb/ds_arm9_crt0.o
 .data          0x0223132c        0x0 c:/devkitpro/devkitarm/bin/../lib/gcc/arm-eabi/4.4.3/thumb/crti.o
 .data          0x0223132c        0x4 c:/devkitpro/devkitarm/bin/../lib/gcc/arm-eabi/4.4.3/thumb/crtbegin.o
                0x0223132c                __dso_handle
 .data          0x02231330        0x0 BG2_bas_alg_Map.o
 .data          0x02231330        0x0 BG2_bas_alg_Pal.o
 .data          0x02231330        0x0 BG2_bas_alg_Tiles.o
 .data          0x02231330        0x0 BG2_bas_amazonia_Map.o
 .data          0x02231330        0x0 BG2_bas_amazonia_Pal.o
 .data          0x02231330        0x0 BG2_bas_amazonia_Tiles.o
 .data          0x02231330        0x0 BG2_bas_arg_Map.o
 .data          0x02231330        0x0 BG2_bas_arg_Pal.o
 .data          0x02231330        0x0 BG2_bas_arg_Tiles.o
 .data          0x02231330        0x0 BG2_bas_aus_Map.o
 .data          0x02231330        0x0 BG2_bas_aus_Pal.o
 .data          0x02231330        0x0 BG2_bas_aus_Tiles.o
 .data          0x02231330        0x0 BG2_bas_baixada_Map.o
 .data          0x02231330        0x0 BG2_bas_baixada_Pal.o
 .data          0x02231330        0x0 BG2_bas_baixada_Tiles.o
 .data          0x02231330        0x0 BG2_bas_beirario_Map.o
 .data          0x02231330        0x0 BG2_bas_beirario_Pal.o
 .data          0x02231330        0x0 BG2_bas_beirario_Tiles.o
 .data          0x02231330        0x0 BG2_bas_bel_Map.o
 .data          0x02231330        0x0 BG2_bas_bel_Pal.o
 .data          0x02231330        0x0 BG2_bas_bel_Tiles.o
 .data          0x02231330        0x0 BG2_bas_bih_Map.o
 .data          0x02231330        0x0 BG2_bas_bih_Pal.o
 .data          0x02231330        0x0 BG2_bas_bih_Tiles.o
 .data          0x02231330        0x0 BG2_bas_bra_Map.o
 .data          0x02231330        0x0 BG2_bas_bra_Pal.o
 .data          0x02231330        0x0 BG2_bas_bra_Tiles.o
 .data          0x02231330        0x0 BG2_bas_castelao_Map.o
 .data          0x02231330        0x0 BG2_bas_castelao_Pal.o
 .data          0x02231330        0x0 BG2_bas_castelao_Tiles.o
 .data          0x02231330        0x0 BG2_bas_chi_Map.o
 .data          0x02231330        0x0 BG2_bas_chi_Pal.o
 .data          0x02231330        0x0 BG2_bas_chi_Tiles.o
 .data          0x02231330        0x0 BG2_bas_civ_Map.o
 .data          0x02231330        0x0 BG2_bas_civ_Pal.o
 .data          0x02231330        0x0 BG2_bas_civ_Tiles.o
 .data          0x02231330        0x0 BG2_bas_cmr_Map.o
 .data          0x02231330        0x0 BG2_bas_cmr_Pal.o
 .data          0x02231330        0x0 BG2_bas_cmr_Tiles.o
 .data          0x02231330        0x0 BG2_bas_col_Map.o
 .data          0x02231330        0x0 BG2_bas_col_Pal.o
 .data          0x02231330        0x0 BG2_bas_col_Tiles.o
 .data          0x02231330        0x0 BG2_bas_crc_Map.o
 .data          0x02231330        0x0 BG2_bas_crc_Pal.o
 .data          0x02231330        0x0 BG2_bas_crc_Tiles.o
 .data          0x02231330        0x0 BG2_bas_cro_Map.o
 .data          0x02231330        0x0 BG2_bas_cro_Pal.o
 .data          0x02231330        0x0 BG2_bas_cro_Tiles.o
 .data          0x02231330        0x0 BG2_bas_dasdunas_Map.o
 .data          0x02231330        0x0 BG2_bas_dasdunas_Pal.o
 .data          0x02231330        0x0 BG2_bas_dasdunas_Tiles.o
 .data          0x02231330        0x0 BG2_bas_ecu_Map.o
 .data          0x02231330        0x0 BG2_bas_ecu_Pal.o
 .data          0x02231330        0x0 BG2_bas_ecu_Tiles.o
 .data          0x02231330        0x0 BG2_bas_eng_Map.o
 .data          0x02231330        0x0 BG2_bas_eng_Pal.o
 .data          0x02231330        0x0 BG2_bas_eng_Tiles.o
 .data          0x02231330        0x0 BG2_bas_esp_Map.o
 .data          0x02231330        0x0 BG2_bas_esp_Pal.o
 .data          0x02231330        0x0 BG2_bas_esp_Tiles.o
 .data          0x02231330        0x0 BG2_bas_fontenova_Map.o
 .data          0x02231330        0x0 BG2_bas_fontenova_Pal.o
 .data          0x02231330        0x0 BG2_bas_fontenova_Tiles.o
 .data          0x02231330        0x0 BG2_bas_fra_Map.o
 .data          0x02231330        0x0 BG2_bas_fra_Pal.o
 .data          0x02231330        0x0 BG2_bas_fra_Tiles.o
 .data          0x02231330        0x0 BG2_bas_ger_Map.o
 .data          0x02231330        0x0 BG2_bas_ger_Pal.o
 .data          0x02231330        0x0 BG2_bas_ger_Tiles.o
 .data          0x02231330        0x0 BG2_bas_gha_Map.o
 .data          0x02231330        0x0 BG2_bas_gha_Pal.o
 .data          0x02231330        0x0 BG2_bas_gha_Tiles.o
 .data          0x02231330        0x0 BG2_bas_gre_Map.o
 .data          0x02231330        0x0 BG2_bas_gre_Pal.o
 .data          0x02231330        0x0 BG2_bas_gre_Tiles.o
 .data          0x02231330        0x0 BG2_bas_hon_Map.o
 .data          0x02231330        0x0 BG2_bas_hon_Pal.o
 .data          0x02231330        0x0 BG2_bas_hon_Tiles.o
 .data          0x02231330        0x0 BG2_bas_irn_Map.o
 .data          0x02231330        0x0 BG2_bas_irn_Pal.o
 .data          0x02231330        0x0 BG2_bas_irn_Tiles.o
 .data          0x02231330        0x0 BG2_bas_ita_Map.o
 .data          0x02231330        0x0 BG2_bas_ita_Pal.o
 .data          0x02231330        0x0 BG2_bas_ita_Tiles.o
 .data          0x02231330        0x0 BG2_bas_jpn_Map.o
 .data          0x02231330        0x0 BG2_bas_jpn_Pal.o
 .data          0x02231330        0x0 BG2_bas_jpn_Tiles.o
 .data          0x02231330        0x0 BG2_bas_kor_Map.o
 .data          0x02231330        0x0 BG2_bas_kor_Pal.o
 .data          0x02231330        0x0 BG2_bas_kor_Tiles.o
 .data          0x02231330        0x0 BG2_bas_maracana_Map.o
 .data          0x02231330        0x0 BG2_bas_maracana_Pal.o
 .data          0x02231330        0x0 BG2_bas_maracana_Tiles.o
 .data          0x02231330        0x0 BG2_bas_mex_Map.o
 .data          0x02231330        0x0 BG2_bas_mex_Pal.o
 .data          0x02231330        0x0 BG2_bas_mex_Tiles.o
 .data          0x02231330        0x0 BG2_bas_mineirao_Map.o
 .data          0x02231330        0x0 BG2_bas_mineirao_Pal.o
 .data          0x02231330        0x0 BG2_bas_mineirao_Tiles.o
 .data          0x02231330        0x0 BG2_bas_nacional_Map.o
 .data          0x02231330        0x0 BG2_bas_nacional_Pal.o
 .data          0x02231330        0x0 BG2_bas_nacional_Tiles.o
 .data          0x02231330        0x0 BG2_bas_ned_Map.o
 .data          0x02231330        0x0 BG2_bas_ned_Pal.o
 .data          0x02231330        0x0 BG2_bas_ned_Tiles.o
 .data          0x02231330        0x0 BG2_bas_nga_Map.o
 .data          0x02231330        0x0 BG2_bas_nga_Pal.o
 .data          0x02231330        0x0 BG2_bas_nga_Tiles.o
 .data          0x02231330        0x0 BG2_bas_pantanal_Map.o
 .data          0x02231330        0x0 BG2_bas_pantanal_Pal.o
 .data          0x02231330        0x0 BG2_bas_pantanal_Tiles.o
 .data          0x02231330        0x0 BG2_bas_pernambuco_Map.o
 .data          0x02231330        0x0 BG2_bas_pernambuco_Pal.o
 .data          0x02231330        0x0 BG2_bas_pernambuco_Tiles.o
 .data          0x02231330        0x0 BG2_bas_por_Map.o
 .data          0x02231330        0x0 BG2_bas_por_Pal.o
 .data          0x02231330        0x0 BG2_bas_por_Tiles.o
 .data          0x02231330        0x0 BG2_bas_rus_Map.o
 .data          0x02231330        0x0 BG2_bas_rus_Pal.o
 .data          0x02231330        0x0 BG2_bas_rus_Tiles.o
 .data          0x02231330        0x0 BG2_bas_saopaulo_Map.o
 .data          0x02231330        0x0 BG2_bas_saopaulo_Pal.o
 .data          0x02231330        0x0 BG2_bas_saopaulo_Tiles.o
 .data          0x02231330        0x0 BG2_bas_selection_Map.o
 .data          0x02231330        0x0 BG2_bas_selection_Pal.o
 .data          0x02231330        0x0 BG2_bas_selection_Tiles.o
 .data          0x02231330        0x0 BG2_bas_sui_Map.o
 .data          0x02231330        0x0 BG2_bas_sui_Pal.o
 .data          0x02231330        0x0 BG2_bas_sui_Tiles.o
 .data          0x02231330        0x0 BG2_bas_uru_Map.o
 .data          0x02231330        0x0 BG2_bas_uru_Pal.o
 .data          0x02231330        0x0 BG2_bas_uru_Tiles.o
 .data          0x02231330        0x0 BG2_bas_usa_Map.o
 .data          0x02231330        0x0 BG2_bas_usa_Pal.o
 .data          0x02231330        0x0 BG2_bas_usa_Tiles.o
 .data          0x02231330        0x0 Groupe_Lettres_Pal.o
 .data          0x02231330        0x0 Groupe_Lettres_Sprite.o
 .data          0x02231330        0x0 Signe_Pal.o
 .data          0x02231330        0x0 Signe_Sprite.o
 .data          0x02231330        0x0 ballon_Pal.o
 .data          0x02231330        0x0 ballon_Sprite.o
 .data          0x02231330        0x0 flags_64_Pal.o
 .data          0x02231330        0x0 flags_64_Sprite.o
 .data          0x02231330        0x0 flags_Pal.o
 .data          0x02231330        0x0 flags_Sprite.o
 .data          0x02231330        0x0 icones_Pal.o
 .data          0x02231330        0x0 icones_Sprite.o
 .data          0x02231330        0x0 newfont_Map.o
 .data          0x02231330        0x0 newfont_Pal.o
 .data          0x02231330        0x0 newfont_Tiles.o
 .data          0x02231330        0x0 nombres_32_Pal.o
 .data          0x02231330        0x0 nombres_32_Sprite.o
 .data          0x02231330        0x0 nombres_Pal.o
 .data          0x02231330        0x0 nombres_Sprite.o
 .data          0x02231330        0x0 quitter_Pal.o
 .data          0x02231330        0x0 quitter_Sprite.o
 .data          0x02231330        0x0 soundbank_bin.o
 .data          0x02231330        0x0 BG3_bas_connexion_eng.o
 .data          0x02231330        0x0 BG3_bas_connexion_esp.o
 .data          0x02231330        0x0 BG3_bas_connexion_fra.o
 .data          0x02231330        0x0 BG3_bas_connexion_ger.o
 .data          0x02231330        0x0 BG3_bas_connexion_ita.o
 .data          0x02231330        0x0 BG3_bas_deux.o
 .data          0x02231330        0x0 BG3_bas_echec_eng.o
 .data          0x02231330        0x0 BG3_bas_echec_esp.o
 .data          0x02231330        0x0 BG3_bas_echec_fra.o
 .data          0x02231330        0x0 BG3_bas_echec_ger.o
 .data          0x02231330        0x0 BG3_bas_echec_ita.o
 .data          0x02231330        0x0 BG3_bas_equipes_eng.o
 .data          0x02231330        0x0 BG3_bas_equipes_esp.o
 .data          0x02231330        0x0 BG3_bas_equipes_fra.o
 .data          0x02231330        0x0 BG3_bas_equipes_ger.o
 .data          0x02231330        0x0 BG3_bas_equipes_ita.o
 .data          0x02231330        0x0 BG3_bas_groupes.o
 .data          0x02231330        0x0 BG3_bas_menu_eng.o
 .data          0x02231330        0x0 BG3_bas_menu_esp.o
 .data          0x02231330        0x0 BG3_bas_menu_fra.o
 .data          0x02231330        0x0 BG3_bas_menu_ger.o
 .data          0x02231330        0x0 BG3_bas_menu_ita.o
 .data          0x02231330        0x0 BG3_bas_penalty.o
 .data          0x02231330        0x0 BG3_bas_quatres.o
 .data          0x02231330        0x0 BG3_bas_reussi_eng.o
 .data          0x02231330        0x0 BG3_bas_reussi_esp.o
 .data          0x02231330        0x0 BG3_bas_reussi_fra.o
 .data          0x02231330        0x0 BG3_bas_reussi_ger.o
 .data          0x02231330        0x0 BG3_bas_reussi_ita.o
 .data          0x02231330        0x0 BG3_bas_score.o
 .data          0x02231330        0x0 BG3_bas_stades_eng.o
 .data          0x02231330        0x0 BG3_bas_stades_esp.o
 .data          0x02231330        0x0 BG3_bas_stades_fra.o
 .data          0x02231330        0x0 BG3_bas_stades_ger.o
 .data          0x02231330        0x0 BG3_bas_stades_ita.o
 .data          0x02231330        0x0 BG3_bas_wifi_eng.o
 .data          0x02231330        0x0 BG3_bas_wifi_esp.o
 .data          0x02231330        0x0 BG3_bas_wifi_fra.o
 .data          0x02231330        0x0 BG3_bas_wifi_ger.o
 .data          0x02231330        0x0 BG3_bas_wifi_ita.o
 .data          0x02231330        0x0 BG3_haut_demi_eng.o
 .data          0x02231330        0x0 BG3_haut_demi_esp.o
 .data          0x02231330        0x0 BG3_haut_demi_fra.o
 .data          0x02231330        0x0 BG3_haut_demi_ger.o
 .data          0x02231330        0x0 BG3_haut_demi_ita.o
 .data          0x02231330        0x0 BG3_haut_finale_eng.o
 .data          0x02231330        0x0 BG3_haut_finale_esp.o
 .data          0x02231330        0x0 BG3_haut_finale_fra.o
 .data          0x02231330        0x0 BG3_haut_finale_ger.o
 .data          0x02231330        0x0 BG3_haut_finale_ita.o
 .data          0x02231330        0x0 BG3_haut_groupes_eng.o
 .data          0x02231330        0x0 BG3_haut_groupes_esp.o
 .data          0x02231330        0x0 BG3_haut_groupes_fra.o
 .data          0x02231330        0x0 BG3_haut_groupes_ger.o
 .data          0x02231330        0x0 BG3_haut_groupes_ita.o
 .data          0x02231330        0x0 BG3_haut_huitieme_eng.o
 .data          0x02231330        0x0 BG3_haut_huitieme_esp.o
 .data          0x02231330        0x0 BG3_haut_huitieme_fra.o
 .data          0x02231330        0x0 BG3_haut_huitieme_ger.o
 .data          0x02231330        0x0 BG3_haut_huitieme_ita.o
 .data          0x02231330        0x0 BG3_haut_quart_eng.o
 .data          0x02231330        0x0 BG3_haut_quart_esp.o
 .data          0x02231330        0x0 BG3_haut_quart_fra.o
 .data          0x02231330        0x0 BG3_haut_quart_ger.o
 .data          0x02231330        0x0 BG3_haut_quart_ita.o
 .data          0x02231330        0x0 BG3_haut_titre.o
 .data          0x02231330        0x0 amazonia.o
 .data          0x02231330        0x0 baixada.o
 .data          0x02231330        0x0 beirario.o
 .data          0x02231330        0x0 black.o
 .data          0x02231330        0x0 castelao.o
 .data          0x02231330        0x0 credits.o
 .data          0x02231330        0x0 devkitpro.o
 .data          0x02231330        0x0 dunas.o
 .data          0x02231330        0x0 fontenova.o
 .data          0x02231330        0x0 intro1.o
 .data          0x02231330        0x0 intro2.o
 .data          0x02231330        0x0 intro3.o
 .data          0x02231330        0x0 licensed.o
 .data          0x02231330        0x0 maracana.o
 .data          0x02231330        0x0 mineirao.o
 .data          0x02231330        0x0 nacional.o
 .data          0x02231330        0x0 palib.o
 .data          0x02231330        0x0 pantanal.o
 .data          0x02231330        0x0 pernambuco.o
 .data          0x02231330        0x0 saopaulo.o
 .data          0x02231330        0x0 ky_geturl.o
 .data          0x02231330        0x0 main.o
 .data          0x02231330        0x0 BG2_bas_alg.o
 .data          0x02231330        0x0 BG2_bas_amazonia.o
 .data          0x02231330        0x0 BG2_bas_arg.o
 .data          0x02231330        0x0 BG2_bas_aus.o
 .data          0x02231330        0x0 BG2_bas_baixada.o
 .data          0x02231330        0x0 BG2_bas_beirario.o
 .data          0x02231330        0x0 BG2_bas_bel.o
 .data          0x02231330        0x0 BG2_bas_bih.o
 .data          0x02231330        0x0 BG2_bas_bra.o
 .data          0x02231330        0x0 BG2_bas_castelao.o
 .data          0x02231330        0x0 BG2_bas_chi.o
 .data          0x02231330        0x0 BG2_bas_civ.o
 .data          0x02231330        0x0 BG2_bas_cmr.o
 .data          0x02231330        0x0 BG2_bas_col.o
 .data          0x02231330        0x0 BG2_bas_crc.o
 .data          0x02231330        0x0 BG2_bas_cro.o
 .data          0x02231330        0x0 BG2_bas_dasdunas.o
 .data          0x02231330        0x0 BG2_bas_ecu.o
 .data          0x02231330        0x0 BG2_bas_eng.o
 .data          0x02231330        0x0 BG2_bas_esp.o
 .data          0x02231330        0x0 BG2_bas_fontenova.o
 .data          0x02231330        0x0 BG2_bas_fra.o
 .data          0x02231330        0x0 BG2_bas_ger.o
 .data          0x02231330        0x0 BG2_bas_gha.o
 .data          0x02231330        0x0 BG2_bas_gre.o
 .data          0x02231330        0x0 BG2_bas_hon.o
 .data          0x02231330        0x0 BG2_bas_irn.o
 .data          0x02231330        0x0 BG2_bas_ita.o
 .data          0x02231330        0x0 BG2_bas_jpn.o
 .data          0x02231330        0x0 BG2_bas_kor.o
 .data          0x02231330        0x0 BG2_bas_maracana.o
 .data          0x02231330        0x0 BG2_bas_mex.o
 .data          0x02231330        0x0 BG2_bas_mineirao.o
 .data          0x02231330        0x0 BG2_bas_nacional.o
 .data          0x02231330        0x0 BG2_bas_ned.o
 .data          0x02231330        0x0 BG2_bas_nga.o
 .data          0x02231330        0x0 BG2_bas_pantanal.o
 .data          0x02231330        0x0 BG2_bas_pernambuco.o
 .data          0x02231330        0x0 BG2_bas_por.o
 .data          0x02231330        0x0 BG2_bas_rus.o
 .data          0x02231330        0x0 BG2_bas_saopaulo.o
 .data          0x02231330        0x0 BG2_bas_selection.o
 .data          0x02231330        0x0 BG2_bas_sui.o
 .data          0x02231330        0x0 BG2_bas_uru.o
 .data          0x02231330        0x0 BG2_bas_usa.o
 .data          0x02231330        0x0 newfont.o
 .data          0x02231330       0x10 c:/devkitPro/PAlib/lib\libpa9.a(PA_BgTiles.o)
                0x02231330                bg_place
                0x02231334                bg_sizes
                0x0223133c                charsetstart
 .data          0x02231340        0x0 c:/devkitPro/PAlib/lib\libpa9.a(PA.o)
 .data          0x02231340        0x0 c:/devkitPro/PAlib/lib\libpa9.a(PA_Draw8bit.o)
 .data          0x02231340        0x0 c:/devkitPro/PAlib/lib\libpa9.a(PA_Draw.o)
 .data          0x02231340        0x0 c:/devkitPro/PAlib/lib\libpa9.a(PA_Error.o)
 .data          0x02231340        0x0 c:/devkitPro/PAlib/lib\libpa9.a(PA_Gif.o)
 .data          0x02231340        0x0 c:/devkitPro/PAlib/lib\libpa9.a(PA_Inits.o)
 .data          0x02231340       0x14 c:/devkitPro/PAlib/lib\libpa9.a(PA_Interrupt.o)
                0x02231340                SpriteVBL
                0x02231344                MotionVBL
                0x02231348                GHPadVBL
                0x0223134c                PaddleVBL
                0x02231350                CustomVBL
 .data          0x02231354        0x0 c:/devkitPro/PAlib/lib\libpa9.a(PA_Keys.o)
 .data          0x02231354        0x4 c:/devkitPro/PAlib/lib\libpa9.a(PA_Math.o)
                0x02231354                RandomValue
 .data          0x02231358        0x0 c:/devkitPro/PAlib/lib\libpa9.a(PA_NewBg.o)
 .data          0x02231358        0x0 c:/devkitPro/PAlib/lib\libpa9.a(PA_Palette.o)
 .data          0x02231358      0x204 c:/devkitPro/PAlib/lib\libpa9.a(PA_Reco.o)
                0x02231358                PA_UseGraffiti
                0x0223135c                PA_Graffiti
 .data          0x0223155c        0x0 c:/devkitPro/PAlib/lib\libpa9.a(PA_RTC.o)
 .data          0x0223155c        0x0 c:/devkitPro/PAlib/lib\libpa9.a(PA_SpriteAnim.o)
 .data          0x0223155c        0x4 c:/devkitPro/PAlib/lib\libpa9.a(PA_Sprite.o)
                0x0223155c                VBLSpriteAnims
 .data          0x02231560        0x0 c:/devkitPro/PAlib/lib\libpa9.a(PA_Stuff.o)
 .data          0x02231560       0x3c c:/devkitPro/PAlib/lib\libpa9.a(PA_Text8bit.o)
                0x02231560                bit8_tiles
                0x02231588                letters
 .data          0x0223159c       0x7c c:/devkitPro/PAlib/lib\libpa9.a(PA_TextBits.o)
                0x0223159c                textinfo
                0x022315a0                pa_bittextdefaultsize
                0x022315c8                bittext_maps
                0x022315f0                bittext_tiles_blank
 .data          0x02231618        0x0 c:/devkitPro/PAlib/lib\libpa9.a(PA_Text.o)
 .data          0x02231618        0x0 c:/devkitPro/PAlib/lib\libpa9.a(dgif_lib.o)
 .data          0x02231618        0x0 c:/devkitPro/PAlib/lib\libpa9.a(gifalloc.o)
 .data          0x02231618        0x0 c:/devkitPro/PAlib/lib\libpa9.a(gif_err.o)
 .data          0x02231618        0x0 c:/devkitPro/PAlib/lib\libpa9.a(PA_TiledFont.o)
 .data          0x02231618        0x0 c:/devkitPro/PAlib/lib\libpa9.a(PA_BmpFont0.o)
 .data          0x02231618        0x0 c:/devkitPro/PAlib/lib\libpa9.a(PA_BmpFont1.o)
 .data          0x02231618        0x0 c:/devkitPro/PAlib/lib\libpa9.a(PA_BmpFont2.o)
 .data          0x02231618        0x0 c:/devkitPro/PAlib/lib\libpa9.a(PA_BmpFont3.o)
 .data          0x02231618        0x0 c:/devkitPro/PAlib/lib\libpa9.a(PA_BmpFont4.o)
 .data          0x02231618        0x0 c:/devkitPro/PAlib/lib\libpa9.a(PA_TiledFont_Map.bin.o)
 .data          0x02231618        0x0 c:/devkitPro/PAlib/lib\libpa9.a(PA_TiledFont_Pal.bin.o)
 .data          0x02231618        0x0 c:/devkitPro/PAlib/lib\libpa9.a(PA_TiledFont_Tiles.bin.o)
 .data          0x02231618        0x0 c:/devkitPro/PAlib/lib\libpa9.a(PA_BmpFont0_Map.bin.o)
 .data          0x02231618        0x0 c:/devkitPro/PAlib/lib\libpa9.a(PA_BmpFont0_Sizes.bin.o)
 .data          0x02231618        0x0 c:/devkitPro/PAlib/lib\libpa9.a(PA_BmpFont0_Tiles.bin.o)
 .data          0x02231618        0x0 c:/devkitPro/PAlib/lib\libpa9.a(PA_BmpFont1_Map.bin.o)
 .data          0x02231618        0x0 c:/devkitPro/PAlib/lib\libpa9.a(PA_BmpFont1_Sizes.bin.o)
 .data          0x02231618        0x0 c:/devkitPro/PAlib/lib\libpa9.a(PA_BmpFont1_Tiles.bin.o)
 .data          0x02231618        0x0 c:/devkitPro/PAlib/lib\libpa9.a(PA_BmpFont2_Map.bin.o)
 .data          0x02231618        0x0 c:/devkitPro/PAlib/lib\libpa9.a(PA_BmpFont2_Sizes.bin.o)
 .data          0x02231618        0x0 c:/devkitPro/PAlib/lib\libpa9.a(PA_BmpFont2_Tiles.bin.o)
 .data          0x02231618        0x0 c:/devkitPro/PAlib/lib\libpa9.a(PA_BmpFont3_Map.bin.o)
 .data          0x02231618        0x0 c:/devkitPro/PAlib/lib\libpa9.a(PA_BmpFont3_Sizes.bin.o)
 .data          0x02231618        0x0 c:/devkitPro/PAlib/lib\libpa9.a(PA_BmpFont3_Tiles.bin.o)
 .data          0x02231618        0x0 c:/devkitPro/PAlib/lib\libpa9.a(PA_BmpFont4_Map.bin.o)
 .data          0x02231618        0x0 c:/devkitPro/PAlib/lib\libpa9.a(PA_BmpFont4_Sizes.bin.o)
 .data          0x02231618        0x0 c:/devkitPro/PAlib/lib\libpa9.a(PA_BmpFont4_Tiles.bin.o)
 .data          0x02231618       0x28 c:/devkitPro/PAlib/lib\libpa9.a(PA_16c.o)
                0x02231618                c16_tiles
 .data          0x02231640        0x0 c:/devkitPro/PAlib/lib\libpa9.a(PA_BgEasy.o)
 .data          0x02231640        0x0 c:/devkitPro/PAlib/lib\libpa9.a(PA_BgLargeMap.o)
 .data          0x02231640        0xc c:/devkitPro/PAlib/lib\libpa9.a(PA_BgRot.o)
                0x02231640                rotbg_place
                0x02231644                rotbg_sizes
 .data          0x0223164c        0x0 c:/devkitPro/PAlib/lib\libpa9.a(PA_Fifo.o)
 .data          0x0223164c        0x0 c:/devkitPro/PAlib/lib\libpa9.a(PA_Keyboard.o)
 .data          0x0223164c        0x0 c:/devkitPro/PAlib/lib\libpa9.a(PA_PaletteEx.o)
 .data          0x0223164c        0x0 c:/devkitPro/PAlib/lib\libpa9.a(keyboard.map.o)
 .data          0x0223164c        0x0 c:/devkitPro/PAlib/lib\libpa9.a(keyboard.pal.o)
 .data          0x0223164c        0x0 c:/devkitPro/PAlib/lib\libpa9.a(keyboard.raw.o)
 .data          0x0223164c        0x0 c:/devkitPro/libnds/lib\libfat.a(libfat.o)
 .data          0x0223164c        0x4 c:/devkitPro/libnds/lib\libfat.a(partition.o)
                0x0223164c                DEVICE_NAME
 .data          0x02231650        0x0 c:/devkitPro/libnds/lib\libfat.a(cache.o)
 .data          0x02231650        0x0 c:/devkitPro/libnds/lib\libfat.a(directory.o)
 .data          0x02231650        0x0 c:/devkitPro/libnds/lib\libfat.a(disc.o)
 .data          0x02231650        0x0 c:/devkitPro/libnds/lib\libfat.a(fatdir.o)
 .data          0x02231650        0x0 c:/devkitPro/libnds/lib\libfat.a(fatfile.o)
 .data          0x02231650        0x0 c:/devkitPro/libnds/lib\libfat.a(file_allocation_table.o)
 .data          0x02231650        0x0 c:/devkitPro/libnds/lib\libfat.a(filetime.o)
 .data          0x02231650        0x0 c:/devkitPro/libnds/lib\libnds9.a(gurumeditation.o)
 .data          0x02231650        0x3 c:/devkitPro/libnds/lib\libnds9.a(keys.o)
 .data          0x02231653        0x0 c:/devkitPro/libnds/lib\libnds9.a(system.o)
 .data          0x02231653        0x0 c:/devkitPro/libnds/lib\libnds9.a(touch.o)
 .data          0x02231653        0x0 c:/devkitPro/libnds/lib\libnds9.a(video.o)
 *fill*         0x02231653        0x1 ff
 .data          0x02231654        0x4 c:/devkitPro/libnds/lib\libnds9.a(dldi.o)
                0x02231654                io_dldi_data
 .data          0x02231658        0x0 c:/devkitPro/libnds/lib\libnds9.a(initSystem.o)
 .data          0x02231658       0x10 c:/devkitPro/libnds/lib\libnds9.a(fifosystem.o)
                0x02231658                fifo_freewords
                0x0223165c                fifo_send_queue
                0x02231660                fifo_buffer_free
                0x02231664                fifo_receive_queue
 .data          0x02231668        0x0 c:/devkitPro/libnds/lib\libnds9.a(interrupts.o)
 .data          0x02231668        0x0 c:/devkitPro/libnds/lib\libnds9.a(libnds_exit.o)
 .data          0x02231668        0x0 c:/devkitPro/libnds/lib\libnds9.a(dcache.o)
 .data          0x02231668        0x0 c:/devkitPro/libnds/lib\libnds9.a(exceptionHandler.o)
 .data          0x02231668        0x0 c:/devkitPro/libnds/lib\libnds9.a(dldi_stub.o)
 .data          0x02231668        0x0 c:/devkitPro/libnds/lib\libnds9.a(mpu_setup.o)
 .data          0x02231668        0x0 c:/devkitPro/libnds/lib\libnds9.a(biosCalls.o)
 .data          0x02231668        0x0 c:/devkitPro/libnds/lib\libnds9.a(interruptDispatcher.o)
 .data          0x02231668        0x0 c:/devkitPro/libnds/lib\libnds9.a(swiSoftReset.o)
 .data          0x02231668       0x64 c:/devkitPro/libnds/lib\libnds9.a(console.o)
                0x02231668                defaultConsole
                0x022316c4                currentConsole
 .data          0x022316cc        0x0 c:/devkitPro/libnds/lib\libnds9.a(exceptions.o)
 .data          0x022316cc        0x0 c:/devkitPro/libnds/lib\libnds9.a(debugprint.o)
 .data          0x022316cc        0x0 c:/devkitPro/libnds/lib\libnds9.a(default_font.bin.o)
 .data          0x022316cc       0x60 c:/devkitPro/libnds/lib\libnds9.a(background.o)
                0x022316cc                bgScrollTable
                0x022316ec                bgTransform
                0x0223170c                bgControl
 .data          0x0223172c      0x308 c:/devkitPro/libnds/lib\libnds9.a(trig.o)
                0x0223172c                SIN_LUT
                0x02231830                TAN_LUT
 .data          0x02231a34        0x0 c:/devkitPro/libnds/lib\libdswifi9.a(sgIP_Hub.o)
 .data          0x02231a34        0x0 c:/devkitPro/libnds/lib\libdswifi9.a(sgIP_memblock.o)
 .data          0x02231a34        0x0 c:/devkitPro/libnds/lib\libdswifi9.a(sgIP_sockets.o)
 .data          0x02231a34       0x1c c:/devkitPro/libnds/lib\libdswifi9.a(wifi_arm9.o)
                0x02231a34                ASSOCSTATUS_STRINGS
 .data          0x02231a50        0x0 c:/devkitPro/libnds/lib\libdswifi9.a(spinlock.o)
 .data          0x02231a50        0x0 c:/devkitPro/libnds/lib\libdswifi9.a(sgIP.o)
 .data          0x02231a50        0x0 c:/devkitPro/libnds/lib\libdswifi9.a(sgIP_ARP.o)
 .data          0x02231a50        0x0 c:/devkitPro/libnds/lib\libdswifi9.a(sgIP_DHCP.o)
 .data          0x02231a50        0x0 c:/devkitPro/libnds/lib\libdswifi9.a(sgIP_DNS.o)
 .data          0x02231a50        0x0 c:/devkitPro/libnds/lib\libdswifi9.a(sgIP_IP.o)
 .data          0x02231a50        0x0 c:/devkitPro/libnds/lib\libdswifi9.a(sgIP_TCP.o)
 .data          0x02231a50        0x0 c:/devkitPro/libnds/lib\libdswifi9.a(sgIP_UDP.o)
 .data          0x02231a50        0x0 c:/devkitPro/libnds/lib\libdswifi9.a(sgIP_ICMP.o)
 .data          0x02231a50        0x0 c:/devkitPro/libnds/lib\libmm9.a(mm_comms.o)
 .data          0x02231a50        0x0 c:/devkitPro/libnds/lib\libmm9.a(mm_main9.o)
 .data          0x02231a50        0x0 c:/devkitPro/libnds/lib\libmm9.a(mm_memory.o)
 .data          0x02231a50        0x0 c:/devkitPro/libnds/lib\libmm9.a(mm_soundbank.o)
 .data          0x02231a50        0x0 c:/devkitPro/libnds/lib\libmm9.a(mm_flusher.o)
 .data          0x02231a50        0x0 c:/devkitpro/devkitarm/bin/../lib/gcc/arm-eabi/4.4.3/thumb\libgcc.a(_udivsi3.o)
 .data          0x02231a50        0x0 c:/devkitpro/devkitarm/bin/../lib/gcc/arm-eabi/4.4.3/thumb\libgcc.a(_divsi3.o)
 .data          0x02231a50        0x0 c:/devkitpro/devkitarm/bin/../lib/gcc/arm-eabi/4.4.3/thumb\libgcc.a(_dvmd_tls.o)
 .data          0x02231a50        0x0 c:/devkitpro/devkitarm/bin/../lib/gcc/arm-eabi/4.4.3/thumb\libgcc.a(_arm_addsubdf3.o)
 .data          0x02231a50        0x0 c:/devkitpro/devkitarm/bin/../lib/gcc/arm-eabi/4.4.3/thumb\libgcc.a(_arm_muldivdf3.o)
 .data          0x02231a50        0x0 c:/devkitpro/devkitarm/bin/../lib/gcc/arm-eabi/4.4.3/thumb\libgcc.a(_arm_cmpdf2.o)
 .data          0x02231a50        0x0 c:/devkitpro/devkitarm/bin/../lib/gcc/arm-eabi/4.4.3/thumb\libgcc.a(_arm_fixdfsi.o)
 .data          0x02231a50        0x0 c:/devkitpro/devkitarm/bin/../lib/gcc/arm-eabi/4.4.3/thumb\libgcc.a(_arm_addsubsf3.o)
 .data          0x02231a50        0x0 c:/devkitpro/devkitarm/bin/../lib/gcc/arm-eabi/4.4.3/thumb\libgcc.a(_arm_muldivsf3.o)
 .data          0x02231a50        0x0 c:/devkitpro/devkitarm/bin/../lib/gcc/arm-eabi/4.4.3/thumb\libgcc.a(_muldi3.o)
 .data          0x02231a50        0x0 c:/devkitpro/devkitarm/bin/../lib/gcc/arm-eabi/4.4.3/../../../../arm-eabi/lib/thumb\libg.a(lib_a-bsearch.o)
 .data          0x02231a50        0x0 c:/devkitpro/devkitarm/bin/../lib/gcc/arm-eabi/4.4.3/../../../../arm-eabi/lib/thumb\libg.a(lib_a-calloc.o)
 .data          0x02231a50        0x0 c:/devkitpro/devkitarm/bin/../lib/gcc/arm-eabi/4.4.3/../../../../arm-eabi/lib/thumb\libg.a(lib_a-callocr.o)
 .data          0x02231a50        0x0 c:/devkitpro/devkitarm/bin/../lib/gcc/arm-eabi/4.4.3/../../../../arm-eabi/lib/thumb\libg.a(lib_a-errno.o)
 .data          0x02231a50        0x0 c:/devkitpro/devkitarm/bin/../lib/gcc/arm-eabi/4.4.3/../../../../arm-eabi/lib/thumb\libg.a(lib_a-fclose.o)
 .data          0x02231a50        0x0 c:/devkitpro/devkitarm/bin/../lib/gcc/arm-eabi/4.4.3/../../../../arm-eabi/lib/thumb\libg.a(lib_a-fflush.o)
 .data          0x02231a50        0x0 c:/devkitpro/devkitarm/bin/../lib/gcc/arm-eabi/4.4.3/../../../../arm-eabi/lib/thumb\libg.a(lib_a-findfp.o)
 .data          0x02231a50        0x0 c:/devkitpro/devkitarm/bin/../lib/gcc/arm-eabi/4.4.3/../../../../arm-eabi/lib/thumb\libg.a(lib_a-fopen.o)
 .data          0x02231a50        0x0 c:/devkitpro/devkitarm/bin/../lib/gcc/arm-eabi/4.4.3/../../../../arm-eabi/lib/thumb\libg.a(lib_a-fprintf.o)
 .data          0x02231a50        0x0 c:/devkitpro/devkitarm/bin/../lib/gcc/arm-eabi/4.4.3/../../../../arm-eabi/lib/thumb\libg.a(lib_a-fread.o)
 .data          0x02231a50        0x0 c:/devkitpro/devkitarm/bin/../lib/gcc/arm-eabi/4.4.3/../../../../arm-eabi/lib/thumb\libg.a(lib_a-freer.o)
 .data          0x02231a50        0x0 c:/devkitpro/devkitarm/bin/../lib/gcc/arm-eabi/4.4.3/../../../../arm-eabi/lib/thumb\libg.a(lib_a-fseek.o)
 .data          0x02231a50        0x0 c:/devkitpro/devkitarm/bin/../lib/gcc/arm-eabi/4.4.3/../../../../arm-eabi/lib/thumb\libg.a(lib_a-ftell.o)
 .data          0x02231a50        0x0 c:/devkitpro/devkitarm/bin/../lib/gcc/arm-eabi/4.4.3/../../../../arm-eabi/lib/thumb\libg.a(lib_a-fwalk.o)
 .data          0x02231a50        0x0 c:/devkitpro/devkitarm/bin/../lib/gcc/arm-eabi/4.4.3/../../../../arm-eabi/lib/thumb\libg.a(lib_a-fwrite.o)
 .data          0x02231a50        0x0 c:/devkitpro/devkitarm/bin/../lib/gcc/arm-eabi/4.4.3/../../../../arm-eabi/lib/thumb\libg.a(lib_a-gmtime.o)
 .data          0x02231a50        0x0 c:/devkitpro/devkitarm/bin/../lib/gcc/arm-eabi/4.4.3/../../../../arm-eabi/lib/thumb\libg.a(lib_a-gmtime_r.o)
 .data          0x02231a50      0x430 c:/devkitpro/devkitarm/bin/../lib/gcc/arm-eabi/4.4.3/../../../../arm-eabi/lib/thumb\libg.a(lib_a-impure.o)
                0x02231a50                _impure_ptr
 .data          0x02231e80        0x0 c:/devkitpro/devkitarm/bin/../lib/gcc/arm-eabi/4.4.3/../../../../arm-eabi/lib/thumb\libg.a(lib_a-init.o)
 .data          0x02231e80        0x0 c:/devkitpro/devkitarm/bin/../lib/gcc/arm-eabi/4.4.3/../../../../arm-eabi/lib/thumb\libg.a(lib_a-iprintf.o)
 .data          0x02231e80        0x0 c:/devkitpro/devkitarm/bin/../lib/gcc/arm-eabi/4.4.3/../../../../arm-eabi/lib/thumb\libg.a(lib_a-lcltime_r.o)
 .data          0x02231e80      0x144 c:/devkitpro/devkitarm/bin/../lib/gcc/arm-eabi/4.4.3/../../../../arm-eabi/lib/thumb\libg.a(lib_a-locale.o)
                0x02231ec0                __default_locale
                0x02231ee0                __mb_cur_max
 .data          0x02231fc4        0x0 c:/devkitpro/devkitarm/bin/../lib/gcc/arm-eabi/4.4.3/../../../../arm-eabi/lib/thumb\libg.a(lib_a-makebuf.o)
 .data          0x02231fc4        0x0 c:/devkitpro/devkitarm/bin/../lib/gcc/arm-eabi/4.4.3/../../../../arm-eabi/lib/thumb\libg.a(lib_a-malloc.o)
 .data          0x02231fc4      0x410 c:/devkitpro/devkitarm/bin/../lib/gcc/arm-eabi/4.4.3/../../../../arm-eabi/lib/thumb\libg.a(lib_a-mallocr.o)
                0x02231fc4                __malloc_av_
                0x022323cc                __malloc_sbrk_base
                0x022323d0                __malloc_trim_threshold
 .data          0x022323d4        0x0 c:/devkitpro/devkitarm/bin/../lib/gcc/arm-eabi/4.4.3/../../../../arm-eabi/lib/thumb\libg.a(lib_a-mbrtowc.o)
 .data          0x022323d4        0x0 c:/devkitpro/devkitarm/bin/../lib/gcc/arm-eabi/4.4.3/../../../../arm-eabi/lib/thumb\libg.a(lib_a-mbsrtowcs.o)
 .data          0x022323d4        0x4 c:/devkitpro/devkitarm/bin/../lib/gcc/arm-eabi/4.4.3/../../../../arm-eabi/lib/thumb\libg.a(lib_a-mbtowc_r.o)
                0x022323d4                __mbtowc
 .data          0x022323d8        0x0 c:/devkitpro/devkitarm/bin/../lib/gcc/arm-eabi/4.4.3/../../../../arm-eabi/lib/thumb\libg.a(lib_a-memcmp.o)
 .data          0x022323d8        0x0 c:/devkitpro/devkitarm/bin/../lib/gcc/arm-eabi/4.4.3/../../../../arm-eabi/lib/thumb\libg.a(lib_a-memcpy.o)
 .data          0x022323d8        0x0 c:/devkitpro/devkitarm/bin/../lib/gcc/arm-eabi/4.4.3/../../../../arm-eabi/lib/thumb\libg.a(lib_a-memmove.o)
 .data          0x022323d8        0x0 c:/devkitpro/devkitarm/bin/../lib/gcc/arm-eabi/4.4.3/../../../../arm-eabi/lib/thumb\libg.a(lib_a-memset.o)
 .data          0x022323d8        0x0 c:/devkitpro/devkitarm/bin/../lib/gcc/arm-eabi/4.4.3/../../../../arm-eabi/lib/thumb\libg.a(lib_a-mktime.o)
 .data          0x022323d8        0x0 c:/devkitpro/devkitarm/bin/../lib/gcc/arm-eabi/4.4.3/../../../../arm-eabi/lib/thumb\libg.a(lib_a-mktm_r.o)
 .data          0x022323d8        0x0 c:/devkitpro/devkitarm/bin/../lib/gcc/arm-eabi/4.4.3/../../../../arm-eabi/lib/thumb\libg.a(lib_a-mlock.o)
 .data          0x022323d8        0x0 c:/devkitpro/devkitarm/bin/../lib/gcc/arm-eabi/4.4.3/../../../../arm-eabi/lib/thumb\libg.a(lib_a-realloc.o)
 .data          0x022323d8        0x0 c:/devkitpro/devkitarm/bin/../lib/gcc/arm-eabi/4.4.3/../../../../arm-eabi/lib/thumb\libg.a(lib_a-reallocr.o)
 .data          0x022323d8        0x0 c:/devkitpro/devkitarm/bin/../lib/gcc/arm-eabi/4.4.3/../../../../arm-eabi/lib/thumb\libg.a(lib_a-refill.o)
 .data          0x022323d8        0x0 c:/devkitpro/devkitarm/bin/../lib/gcc/arm-eabi/4.4.3/../../../../arm-eabi/lib/thumb\libg.a(lib_a-rewind.o)
 .data          0x022323d8        0x0 c:/devkitpro/devkitarm/bin/../lib/gcc/arm-eabi/4.4.3/../../../../arm-eabi/lib/thumb\libg.a(lib_a-setvbuf.o)
 .data          0x022323d8        0x0 c:/devkitpro/devkitarm/bin/../lib/gcc/arm-eabi/4.4.3/../../../../arm-eabi/lib/thumb\libg.a(lib_a-siscanf.o)
 .data          0x022323d8        0x0 c:/devkitpro/devkitarm/bin/../lib/gcc/arm-eabi/4.4.3/../../../../arm-eabi/lib/thumb\libg.a(lib_a-snprintf.o)
 .data          0x022323d8        0x0 c:/devkitpro/devkitarm/bin/../lib/gcc/arm-eabi/4.4.3/../../../../arm-eabi/lib/thumb\libg.a(lib_a-sprintf.o)
 .data          0x022323d8        0x0 c:/devkitpro/devkitarm/bin/../lib/gcc/arm-eabi/4.4.3/../../../../arm-eabi/lib/thumb\libg.a(lib_a-stdio.o)
 .data          0x022323d8        0x0 c:/devkitpro/devkitarm/bin/../lib/gcc/arm-eabi/4.4.3/../../../../arm-eabi/lib/thumb\libg.a(lib_a-strcasecmp.o)
 .data          0x022323d8        0x0 c:/devkitpro/devkitarm/bin/../lib/gcc/arm-eabi/4.4.3/../../../../arm-eabi/lib/thumb\libg.a(lib_a-strcat.o)
 .data          0x022323d8        0x0 c:/devkitpro/devkitarm/bin/../lib/gcc/arm-eabi/4.4.3/../../../../arm-eabi/lib/thumb\libg.a(lib_a-strchr.o)
 .data          0x022323d8        0x0 c:/devkitpro/devkitarm/bin/../lib/gcc/arm-eabi/4.4.3/../../../../arm-eabi/lib/thumb\libg.a(lib_a-strcmp.o)
 .data          0x022323d8        0x0 c:/devkitpro/devkitarm/bin/../lib/gcc/arm-eabi/4.4.3/../../../../arm-eabi/lib/thumb\libg.a(lib_a-strcpy.o)
 .data          0x022323d8        0x0 c:/devkitpro/devkitarm/bin/../lib/gcc/arm-eabi/4.4.3/../../../../arm-eabi/lib/thumb\libg.a(lib_a-strlcpy.o)
 .data          0x022323d8        0x0 c:/devkitpro/devkitarm/bin/../lib/gcc/arm-eabi/4.4.3/../../../../arm-eabi/lib/thumb\libg.a(lib_a-strlen.o)
 .data          0x022323d8        0x0 c:/devkitpro/devkitarm/bin/../lib/gcc/arm-eabi/4.4.3/../../../../arm-eabi/lib/thumb\libg.a(lib_a-strncasecmp.o)
 .data          0x022323d8        0x0 c:/devkitpro/devkitarm/bin/../lib/gcc/arm-eabi/4.4.3/../../../../arm-eabi/lib/thumb\libg.a(lib_a-strncmp.o)
 .data          0x022323d8        0x0 c:/devkitpro/devkitarm/bin/../lib/gcc/arm-eabi/4.4.3/../../../../arm-eabi/lib/thumb\libg.a(lib_a-strncpy.o)
 .data          0x022323d8        0x0 c:/devkitpro/devkitarm/bin/../lib/gcc/arm-eabi/4.4.3/../../../../arm-eabi/lib/thumb\libg.a(lib_a-strnlen.o)
 .data          0x022323d8        0x0 c:/devkitpro/devkitarm/bin/../lib/gcc/arm-eabi/4.4.3/../../../../arm-eabi/lib/thumb\libg.a(lib_a-strpbrk.o)
 .data          0x022323d8        0x0 c:/devkitpro/devkitarm/bin/../lib/gcc/arm-eabi/4.4.3/../../../../arm-eabi/lib/thumb\libg.a(lib_a-strrchr.o)
 .data          0x022323d8        0x0 c:/devkitpro/devkitarm/bin/../lib/gcc/arm-eabi/4.4.3/../../../../arm-eabi/lib/thumb\libg.a(lib_a-strstr.o)
 .data          0x022323d8        0x0 c:/devkitpro/devkitarm/bin/../lib/gcc/arm-eabi/4.4.3/../../../../arm-eabi/lib/thumb\libg.a(lib_a-strtol.o)
 .data          0x022323d8        0x0 c:/devkitpro/devkitarm/bin/../lib/gcc/arm-eabi/4.4.3/../../../../arm-eabi/lib/thumb\libg.a(lib_a-strtoul.o)
 .data          0x022323d8        0x0 c:/devkitpro/devkitarm/bin/../lib/gcc/arm-eabi/4.4.3/../../../../arm-eabi/lib/thumb\libg.a(lib_a-svfiscanf.o)
 .data          0x022323d8        0x0 c:/devkitpro/devkitarm/bin/../lib/gcc/arm-eabi/4.4.3/../../../../arm-eabi/lib/thumb\libg.a(lib_a-svfprintf.o)
 .data          0x022323d8        0x0 c:/devkitpro/devkitarm/bin/../lib/gcc/arm-eabi/4.4.3/../../../../arm-eabi/lib/thumb\libg.a(lib_a-sysclose.o)
 .data          0x022323d8        0x0 c:/devkitpro/devkitarm/bin/../lib/gcc/arm-eabi/4.4.3/../../../../arm-eabi/lib/thumb\libg.a(lib_a-syslseek.o)
 .data          0x022323d8        0x0 c:/devkitpro/devkitarm/bin/../lib/gcc/arm-eabi/4.4.3/../../../../arm-eabi/lib/thumb\libg.a(lib_a-sysopen.o)
 .data          0x022323d8        0x0 c:/devkitpro/devkitarm/bin/../lib/gcc/arm-eabi/4.4.3/../../../../arm-eabi/lib/thumb\libg.a(lib_a-sysread.o)
 .data          0x022323d8        0x0 c:/devkitpro/devkitarm/bin/../lib/gcc/arm-eabi/4.4.3/../../../../arm-eabi/lib/thumb\libg.a(lib_a-sysstat.o)
 .data          0x022323d8        0x0 c:/devkitpro/devkitarm/bin/../lib/gcc/arm-eabi/4.4.3/../../../../arm-eabi/lib/thumb\libg.a(lib_a-time.o)
 .data          0x022323d8        0x0 c:/devkitpro/devkitarm/bin/../lib/gcc/arm-eabi/4.4.3/../../../../arm-eabi/lib/thumb\libg.a(lib_a-towlower.o)
 .data          0x022323d8        0x0 c:/devkitpro/devkitarm/bin/../lib/gcc/arm-eabi/4.4.3/../../../../arm-eabi/lib/thumb\libg.a(lib_a-towupper.o)
 .data          0x022323d8        0x0 c:/devkitpro/devkitarm/bin/../lib/gcc/arm-eabi/4.4.3/../../../../arm-eabi/lib/thumb\libg.a(lib_a-tzlock.o)
 .data          0x022323d8        0x8 c:/devkitpro/devkitarm/bin/../lib/gcc/arm-eabi/4.4.3/../../../../arm-eabi/lib/thumb\libg.a(lib_a-tzvars.o)
                0x022323d8                _tzname
 .data          0x022323e0        0x0 c:/devkitpro/devkitarm/bin/../lib/gcc/arm-eabi/4.4.3/../../../../arm-eabi/lib/thumb\libg.a(lib_a-ungetc.o)
 .data          0x022323e0        0x0 c:/devkitpro/devkitarm/bin/../lib/gcc/arm-eabi/4.4.3/../../../../arm-eabi/lib/thumb\libg.a(lib_a-vfiprintf.o)
 .data          0x022323e0        0x0 c:/devkitpro/devkitarm/bin/../lib/gcc/arm-eabi/4.4.3/../../../../arm-eabi/lib/thumb\libg.a(lib_a-vfprintf.o)
 .data          0x022323e0        0x0 c:/devkitpro/devkitarm/bin/../lib/gcc/arm-eabi/4.4.3/../../../../arm-eabi/lib/thumb\libg.a(lib_a-wcrtomb.o)
 .data          0x022323e0        0x0 c:/devkitpro/devkitarm/bin/../lib/gcc/arm-eabi/4.4.3/../../../../arm-eabi/lib/thumb\libg.a(lib_a-wcsrtombs.o)
 .data          0x022323e0        0x0 c:/devkitpro/devkitarm/bin/../lib/gcc/arm-eabi/4.4.3/../../../../arm-eabi/lib/thumb\libg.a(lib_a-wctob.o)
 .data          0x022323e0        0x4 c:/devkitpro/devkitarm/bin/../lib/gcc/arm-eabi/4.4.3/../../../../arm-eabi/lib/thumb\libg.a(lib_a-wctomb_r.o)
                0x022323e0                __wctomb
 .data          0x022323e4        0x0 c:/devkitpro/devkitarm/bin/../lib/gcc/arm-eabi/4.4.3/../../../../arm-eabi/lib/thumb\libg.a(lib_a-wsetup.o)
 .data          0x022323e4        0x4 c:/devkitpro/devkitarm/bin/../lib/gcc/arm-eabi/4.4.3/../../../../arm-eabi/lib/thumb\libg.a(lib_a-ctype_.o)
                0x022323e4                __ctype_ptr__
 .data          0x022323e8        0x0 c:/devkitpro/devkitarm/bin/../lib/gcc/arm-eabi/4.4.3/../../../../arm-eabi/lib/thumb\libg.a(lib_a-div.o)
 .data          0x022323e8        0x0 c:/devkitpro/devkitarm/bin/../lib/gcc/arm-eabi/4.4.3/../../../../arm-eabi/lib/thumb\libg.a(lib_a-dtoa.o)
 .data          0x022323e8        0x0 c:/devkitpro/devkitarm/bin/../lib/gcc/arm-eabi/4.4.3/../../../../arm-eabi/lib/thumb\libg.a(lib_a-flags.o)
 .data          0x022323e8        0x0 c:/devkitpro/devkitarm/bin/../lib/gcc/arm-eabi/4.4.3/../../../../arm-eabi/lib/thumb\libg.a(lib_a-fputwc.o)
 .data          0x022323e8        0x0 c:/devkitpro/devkitarm/bin/../lib/gcc/arm-eabi/4.4.3/../../../../arm-eabi/lib/thumb\libg.a(lib_a-fvwrite.o)
 .data          0x022323e8        0x0 c:/devkitpro/devkitarm/bin/../lib/gcc/arm-eabi/4.4.3/../../../../arm-eabi/lib/thumb\libg.a(lib_a-getenv_r.o)
 .data          0x022323e8       0x40 c:/devkitpro/devkitarm/bin/../lib/gcc/arm-eabi/4.4.3/../../../../arm-eabi/lib/thumb\libg.a(lib_a-gettzinfo.o)
 .data          0x02232428        0x0 c:/devkitpro/devkitarm/bin/../lib/gcc/arm-eabi/4.4.3/../../../../arm-eabi/lib/thumb\libg.a(lib_a-iswspace.o)
 .data          0x02232428        0x0 c:/devkitpro/devkitarm/bin/../lib/gcc/arm-eabi/4.4.3/../../../../arm-eabi/lib/thumb\libg.a(lib_a-jp2uc.o)
 .data          0x02232428        0x0 c:/devkitpro/devkitarm/bin/../lib/gcc/arm-eabi/4.4.3/../../../../arm-eabi/lib/thumb\libg.a(lib_a-mbsnrtowcs.o)
 .data          0x02232428        0x0 c:/devkitpro/devkitarm/bin/../lib/gcc/arm-eabi/4.4.3/../../../../arm-eabi/lib/thumb\libg.a(lib_a-memchr.o)
 .data          0x02232428        0x0 c:/devkitpro/devkitarm/bin/../lib/gcc/arm-eabi/4.4.3/../../../../arm-eabi/lib/thumb\libg.a(lib_a-mprec.o)
 .data          0x02232428        0x0 c:/devkitpro/devkitarm/bin/../lib/gcc/arm-eabi/4.4.3/../../../../arm-eabi/lib/thumb\libg.a(lib_a-s_fpclassify.o)
 .data          0x02232428        0x0 c:/devkitpro/devkitarm/bin/../lib/gcc/arm-eabi/4.4.3/../../../../arm-eabi/lib/thumb\libg.a(lib_a-sccl.o)
 .data          0x02232428        0x0 c:/devkitpro/devkitarm/bin/../lib/gcc/arm-eabi/4.4.3/../../../../arm-eabi/lib/thumb\libg.a(lib_a-svfiprintf.o)
 .data          0x02232428        0x0 c:/devkitpro/devkitarm/bin/../lib/gcc/arm-eabi/4.4.3/../../../../arm-eabi/lib/thumb\libg.a(lib_a-wbuf.o)
 .data          0x02232428        0x0 c:/devkitpro/devkitarm/bin/../lib/gcc/arm-eabi/4.4.3/../../../../arm-eabi/lib/thumb\libg.a(lib_a-wcsnrtombs.o)
 .data          0x02232428        0x4 c:/devkitpro/devkitarm/bin/../lib/gcc/arm-eabi/4.4.3/../../../../arm-eabi/lib/thumb\libg.a(lib_a-environ.o)
                0x02232428                environ
 .data          0x0223242c        0x0 c:/devkitpro/devkitarm/bin/../lib/gcc/arm-eabi/4.4.3/../../../../arm-eabi/lib/thumb\libg.a(lib_a-envlock.o)
 .data          0x0223242c       0x44 c:/devkitpro/devkitarm/bin/../lib/gcc/arm-eabi/4.4.3/../../../../arm-eabi/lib/thumb\libsysbase.a(iosupport.o)
                0x02232430                devoptab_list
 .data          0x02232470        0x0 c:/devkitpro/devkitarm/bin/../lib/gcc/arm-eabi/4.4.3/../../../../arm-eabi/lib/thumb\libsysbase.a(close.o)
 .data          0x02232470        0x0 c:/devkitpro/devkitarm/bin/../lib/gcc/arm-eabi/4.4.3/../../../../arm-eabi/lib/thumb\libsysbase.a(fstat.o)
 .data          0x02232470        0x0 c:/devkitpro/devkitarm/bin/../lib/gcc/arm-eabi/4.4.3/../../../../arm-eabi/lib/thumb\libsysbase.a(isatty.o)
 .data          0x02232470        0x0 c:/devkitpro/devkitarm/bin/../lib/gcc/arm-eabi/4.4.3/../../../../arm-eabi/lib/thumb\libsysbase.a(lseek.o)
 .data          0x02232470        0x0 c:/devkitpro/devkitarm/bin/../lib/gcc/arm-eabi/4.4.3/../../../../arm-eabi/lib/thumb\libsysbase.a(open.o)
 .data          0x02232470        0x0 c:/devkitpro/devkitarm/bin/../lib/gcc/arm-eabi/4.4.3/../../../../arm-eabi/lib/thumb\libsysbase.a(read.o)
 .data          0x02232470        0x0 c:/devkitpro/devkitarm/bin/../lib/gcc/arm-eabi/4.4.3/../../../../arm-eabi/lib/thumb\libsysbase.a(sbrk.o)
 .data          0x02232470        0x0 c:/devkitpro/devkitarm/bin/../lib/gcc/arm-eabi/4.4.3/../../../../arm-eabi/lib/thumb\libsysbase.a(stat.o)
 .data          0x02232470        0x0 c:/devkitpro/devkitarm/bin/../lib/gcc/arm-eabi/4.4.3/../../../../arm-eabi/lib/thumb\libsysbase.a(times.o)
 .data          0x02232470        0x0 c:/devkitpro/devkitarm/bin/../lib/gcc/arm-eabi/4.4.3/../../../../arm-eabi/lib/thumb\libsysbase.a(write.o)
 .data          0x02232470        0x0 c:/devkitpro/devkitarm/bin/../lib/gcc/arm-eabi/4.4.3/../../../../arm-eabi/lib/thumb\libsysbase.a(malloc_vars.o)
 .data          0x02232470      0x400 c:/devkitpro/devkitarm/bin/../lib/gcc/arm-eabi/4.4.3/../../../../arm-eabi/lib/thumb\libsysbase.a(chdir.o)
 .data          0x02232870        0x0 c:/devkitpro/devkitarm/bin/../lib/gcc/arm-eabi/4.4.3/../../../../arm-eabi/lib/thumb\libsysbase.a(build_argv.o)
 .data          0x02232870        0x0 c:/devkitpro/devkitarm/bin/../lib/gcc/arm-eabi/4.4.3/../../../../arm-eabi/lib/thumb\libsysbase.a(syscall_support.o)
 .data          0x02232870        0x0 c:/devkitpro/devkitarm/bin/../lib/gcc/arm-eabi/4.4.3/../../../../arm-eabi/lib/thumb\libsysbase.a(handle_manager.o)
 .data          0x02232870        0x0 c:/devkitpro/devkitarm/bin/../lib/gcc/arm-eabi/4.4.3/../../../../arm-eabi/lib/thumb\libsysbase.a(dirent.o)
 .data          0x02232870        0x0 c:/devkitpro/devkitarm/bin/../lib/gcc/arm-eabi/4.4.3/../../../../arm-eabi/lib/thumb\libsysbase.a(dir.o)
 .data          0x02232870        0x0 c:/devkitpro/devkitarm/bin/../lib/gcc/arm-eabi/4.4.3/thumb/crtend.o
 .data          0x02232870        0x0 c:/devkitpro/devkitarm/bin/../lib/gcc/arm-eabi/4.4.3/thumb/crtn.o
 *(.data.*)
 *(.gnu.linkonce.d*)
                0x02232870                . = ALIGN (0x4)
                0x02232870                __data_end = ABSOLUTE (.)
                0x02232870                __dtcm_lma = .
                0x02232870                __bss_vma = .

.dtcm           0x0b000000        0x0 load address 0x02232870
 *(.dtcm)
 *(.dtcm.*)
                0x0b000000                . = ALIGN (0x4)
                0x0b000000                __dtcm_end = ABSOLUTE (.)
                0x02232870                __itcm_lma = (__dtcm_lma + SIZEOF (.dtcm))

.itcm           0x01000100      0x194 load address 0x02232870
 *(.itcm)
 .itcm          0x01000100       0xc8 c:/devkitPro/libnds/lib\libnds9.a(interrupts.o)
                0x01000100                irqTable
 .itcm          0x010001c8       0xcc c:/devkitPro/libnds/lib\libnds9.a(interruptDispatcher.o)
                0x010001c8                IntrMain
 *itcm.*(.text)
                0x01000294                . = ALIGN (0x4)
                0x01000294                __itcm_end = ABSOLUTE (.)
                0x02232a04                __vectors_lma = (__itcm_lma + SIZEOF (.itcm))

.vectors        0x01000000        0x0 load address 0x02232a04
 *(.vectors)
 *vectors.*(.text)
                0x01000000                . = ALIGN (0x4)
                0x01000000                __vectors_end = ABSOLUTE (.)

.sbss           0x0b000000        0x0
                0x0b000000                __sbss_start = ABSOLUTE (.)
                0x0b000000                __sbss_start__ = ABSOLUTE (.)
 *(.sbss)
                0x0b000000                . = ALIGN (0x4)
                0x0b000000                __sbss_end = ABSOLUTE (.)

.bss            0x02232870    0x2a6c0
                0x02232870                __bss_start = ABSOLUTE (.)
                0x02232870                __bss_start__ = ABSOLUTE (.)
 *(.dynbss)
 *(.gnu.linkonce.b*)
 *(.bss*)
 .bss           0x02232870        0x0 c:/devkitpro/devkitarm/bin/../lib/gcc/arm-eabi/4.4.3/../../../../arm-eabi/lib/thumb/ds_arm9_crt0.o
 .bss           0x02232870        0x0 c:/devkitpro/devkitarm/bin/../lib/gcc/arm-eabi/4.4.3/thumb/crti.o
 .bss           0x02232870       0x1c c:/devkitpro/devkitarm/bin/../lib/gcc/arm-eabi/4.4.3/thumb/crtbegin.o
 .bss           0x0223288c        0x0 BG2_bas_alg_Map.o
 .bss           0x0223288c        0x0 BG2_bas_alg_Pal.o
 .bss           0x0223288c        0x0 BG2_bas_alg_Tiles.o
 .bss           0x0223288c        0x0 BG2_bas_amazonia_Map.o
 .bss           0x0223288c        0x0 BG2_bas_amazonia_Pal.o
 .bss           0x0223288c        0x0 BG2_bas_amazonia_Tiles.o
 .bss           0x0223288c        0x0 BG2_bas_arg_Map.o
 .bss           0x0223288c        0x0 BG2_bas_arg_Pal.o
 .bss           0x0223288c        0x0 BG2_bas_arg_Tiles.o
 .bss           0x0223288c        0x0 BG2_bas_aus_Map.o
 .bss           0x0223288c        0x0 BG2_bas_aus_Pal.o
 .bss           0x0223288c        0x0 BG2_bas_aus_Tiles.o
 .bss           0x0223288c        0x0 BG2_bas_baixada_Map.o
 .bss           0x0223288c        0x0 BG2_bas_baixada_Pal.o
 .bss           0x0223288c        0x0 BG2_bas_baixada_Tiles.o
 .bss           0x0223288c        0x0 BG2_bas_beirario_Map.o
 .bss           0x0223288c        0x0 BG2_bas_beirario_Pal.o
 .bss           0x0223288c        0x0 BG2_bas_beirario_Tiles.o
 .bss           0x0223288c        0x0 BG2_bas_bel_Map.o
 .bss           0x0223288c        0x0 BG2_bas_bel_Pal.o
 .bss           0x0223288c        0x0 BG2_bas_bel_Tiles.o
 .bss           0x0223288c        0x0 BG2_bas_bih_Map.o
 .bss           0x0223288c        0x0 BG2_bas_bih_Pal.o
 .bss           0x0223288c        0x0 BG2_bas_bih_Tiles.o
 .bss           0x0223288c        0x0 BG2_bas_bra_Map.o
 .bss           0x0223288c        0x0 BG2_bas_bra_Pal.o
 .bss           0x0223288c        0x0 BG2_bas_bra_Tiles.o
 .bss           0x0223288c        0x0 BG2_bas_castelao_Map.o
 .bss           0x0223288c        0x0 BG2_bas_castelao_Pal.o
 .bss           0x0223288c        0x0 BG2_bas_castelao_Tiles.o
 .bss           0x0223288c        0x0 BG2_bas_chi_Map.o
 .bss           0x0223288c        0x0 BG2_bas_chi_Pal.o
 .bss           0x0223288c        0x0 BG2_bas_chi_Tiles.o
 .bss           0x0223288c        0x0 BG2_bas_civ_Map.o
 .bss           0x0223288c        0x0 BG2_bas_civ_Pal.o
 .bss           0x0223288c        0x0 BG2_bas_civ_Tiles.o
 .bss           0x0223288c        0x0 BG2_bas_cmr_Map.o
 .bss           0x0223288c        0x0 BG2_bas_cmr_Pal.o
 .bss           0x0223288c        0x0 BG2_bas_cmr_Tiles.o
 .bss           0x0223288c        0x0 BG2_bas_col_Map.o
 .bss           0x0223288c        0x0 BG2_bas_col_Pal.o
 .bss           0x0223288c        0x0 BG2_bas_col_Tiles.o
 .bss           0x0223288c        0x0 BG2_bas_crc_Map.o
 .bss           0x0223288c        0x0 BG2_bas_crc_Pal.o
 .bss           0x0223288c        0x0 BG2_bas_crc_Tiles.o
 .bss           0x0223288c        0x0 BG2_bas_cro_Map.o
 .bss           0x0223288c        0x0 BG2_bas_cro_Pal.o
 .bss           0x0223288c        0x0 BG2_bas_cro_Tiles.o
 .bss           0x0223288c        0x0 BG2_bas_dasdunas_Map.o
 .bss           0x0223288c        0x0 BG2_bas_dasdunas_Pal.o
 .bss           0x0223288c        0x0 BG2_bas_dasdunas_Tiles.o
 .bss           0x0223288c        0x0 BG2_bas_ecu_Map.o
 .bss           0x0223288c        0x0 BG2_bas_ecu_Pal.o
 .bss           0x0223288c        0x0 BG2_bas_ecu_Tiles.o
 .bss           0x0223288c        0x0 BG2_bas_eng_Map.o
 .bss           0x0223288c        0x0 BG2_bas_eng_Pal.o
 .bss           0x0223288c        0x0 BG2_bas_eng_Tiles.o
 .bss           0x0223288c        0x0 BG2_bas_esp_Map.o
 .bss           0x0223288c        0x0 BG2_bas_esp_Pal.o
 .bss           0x0223288c        0x0 BG2_bas_esp_Tiles.o
 .bss           0x0223288c        0x0 BG2_bas_fontenova_Map.o
 .bss           0x0223288c        0x0 BG2_bas_fontenova_Pal.o
 .bss           0x0223288c        0x0 BG2_bas_fontenova_Tiles.o
 .bss           0x0223288c        0x0 BG2_bas_fra_Map.o
 .bss           0x0223288c        0x0 BG2_bas_fra_Pal.o
 .bss           0x0223288c        0x0 BG2_bas_fra_Tiles.o
 .bss           0x0223288c        0x0 BG2_bas_ger_Map.o
 .bss           0x0223288c        0x0 BG2_bas_ger_Pal.o
 .bss           0x0223288c        0x0 BG2_bas_ger_Tiles.o
 .bss           0x0223288c        0x0 BG2_bas_gha_Map.o
 .bss           0x0223288c        0x0 BG2_bas_gha_Pal.o
 .bss           0x0223288c        0x0 BG2_bas_gha_Tiles.o
 .bss           0x0223288c        0x0 BG2_bas_gre_Map.o
 .bss           0x0223288c        0x0 BG2_bas_gre_Pal.o
 .bss           0x0223288c        0x0 BG2_bas_gre_Tiles.o
 .bss           0x0223288c        0x0 BG2_bas_hon_Map.o
 .bss           0x0223288c        0x0 BG2_bas_hon_Pal.o
 .bss           0x0223288c        0x0 BG2_bas_hon_Tiles.o
 .bss           0x0223288c        0x0 BG2_bas_irn_Map.o
 .bss           0x0223288c        0x0 BG2_bas_irn_Pal.o
 .bss           0x0223288c        0x0 BG2_bas_irn_Tiles.o
 .bss           0x0223288c        0x0 BG2_bas_ita_Map.o
 .bss           0x0223288c        0x0 BG2_bas_ita_Pal.o
 .bss           0x0223288c        0x0 BG2_bas_ita_Tiles.o
 .bss           0x0223288c        0x0 BG2_bas_jpn_Map.o
 .bss           0x0223288c        0x0 BG2_bas_jpn_Pal.o
 .bss           0x0223288c        0x0 BG2_bas_jpn_Tiles.o
 .bss           0x0223288c        0x0 BG2_bas_kor_Map.o
 .bss           0x0223288c        0x0 BG2_bas_kor_Pal.o
 .bss           0x0223288c        0x0 BG2_bas_kor_Tiles.o
 .bss           0x0223288c        0x0 BG2_bas_maracana_Map.o
 .bss           0x0223288c        0x0 BG2_bas_maracana_Pal.o
 .bss           0x0223288c        0x0 BG2_bas_maracana_Tiles.o
 .bss           0x0223288c        0x0 BG2_bas_mex_Map.o
 .bss           0x0223288c        0x0 BG2_bas_mex_Pal.o
 .bss           0x0223288c        0x0 BG2_bas_mex_Tiles.o
 .bss           0x0223288c        0x0 BG2_bas_mineirao_Map.o
 .bss           0x0223288c        0x0 BG2_bas_mineirao_Pal.o
 .bss           0x0223288c        0x0 BG2_bas_mineirao_Tiles.o
 .bss           0x0223288c        0x0 BG2_bas_nacional_Map.o
 .bss           0x0223288c        0x0 BG2_bas_nacional_Pal.o
 .bss           0x0223288c        0x0 BG2_bas_nacional_Tiles.o
 .bss           0x0223288c        0x0 BG2_bas_ned_Map.o
 .bss           0x0223288c        0x0 BG2_bas_ned_Pal.o
 .bss           0x0223288c        0x0 BG2_bas_ned_Tiles.o
 .bss           0x0223288c        0x0 BG2_bas_nga_Map.o
 .bss           0x0223288c        0x0 BG2_bas_nga_Pal.o
 .bss           0x0223288c        0x0 BG2_bas_nga_Tiles.o
 .bss           0x0223288c        0x0 BG2_bas_pantanal_Map.o
 .bss           0x0223288c        0x0 BG2_bas_pantanal_Pal.o
 .bss           0x0223288c        0x0 BG2_bas_pantanal_Tiles.o
 .bss           0x0223288c        0x0 BG2_bas_pernambuco_Map.o
 .bss           0x0223288c        0x0 BG2_bas_pernambuco_Pal.o
 .bss           0x0223288c        0x0 BG2_bas_pernambuco_Tiles.o
 .bss           0x0223288c        0x0 BG2_bas_por_Map.o
 .bss           0x0223288c        0x0 BG2_bas_por_Pal.o
 .bss           0x0223288c        0x0 BG2_bas_por_Tiles.o
 .bss           0x0223288c        0x0 BG2_bas_rus_Map.o
 .bss           0x0223288c        0x0 BG2_bas_rus_Pal.o
 .bss           0x0223288c        0x0 BG2_bas_rus_Tiles.o
 .bss           0x0223288c        0x0 BG2_bas_saopaulo_Map.o
 .bss           0x0223288c        0x0 BG2_bas_saopaulo_Pal.o
 .bss           0x0223288c        0x0 BG2_bas_saopaulo_Tiles.o
 .bss           0x0223288c        0x0 BG2_bas_selection_Map.o
 .bss           0x0223288c        0x0 BG2_bas_selection_Pal.o
 .bss           0x0223288c        0x0 BG2_bas_selection_Tiles.o
 .bss           0x0223288c        0x0 BG2_bas_sui_Map.o
 .bss           0x0223288c        0x0 BG2_bas_sui_Pal.o
 .bss           0x0223288c        0x0 BG2_bas_sui_Tiles.o
 .bss           0x0223288c        0x0 BG2_bas_uru_Map.o
 .bss           0x0223288c        0x0 BG2_bas_uru_Pal.o
 .bss           0x0223288c        0x0 BG2_bas_uru_Tiles.o
 .bss           0x0223288c        0x0 BG2_bas_usa_Map.o
 .bss           0x0223288c        0x0 BG2_bas_usa_Pal.o
 .bss           0x0223288c        0x0 BG2_bas_usa_Tiles.o
 .bss           0x0223288c        0x0 Groupe_Lettres_Pal.o
 .bss           0x0223288c        0x0 Groupe_Lettres_Sprite.o
 .bss           0x0223288c        0x0 Signe_Pal.o
 .bss           0x0223288c        0x0 Signe_Sprite.o
 .bss           0x0223288c        0x0 ballon_Pal.o
 .bss           0x0223288c        0x0 ballon_Sprite.o
 .bss           0x0223288c        0x0 flags_64_Pal.o
 .bss           0x0223288c        0x0 flags_64_Sprite.o
 .bss           0x0223288c        0x0 flags_Pal.o
 .bss           0x0223288c        0x0 flags_Sprite.o
 .bss           0x0223288c        0x0 icones_Pal.o
 .bss           0x0223288c        0x0 icones_Sprite.o
 .bss           0x0223288c        0x0 newfont_Map.o
 .bss           0x0223288c        0x0 newfont_Pal.o
 .bss           0x0223288c        0x0 newfont_Tiles.o
 .bss           0x0223288c        0x0 nombres_32_Pal.o
 .bss           0x0223288c        0x0 nombres_32_Sprite.o
 .bss           0x0223288c        0x0 nombres_Pal.o
 .bss           0x0223288c        0x0 nombres_Sprite.o
 .bss           0x0223288c        0x0 quitter_Pal.o
 .bss           0x0223288c        0x0 quitter_Sprite.o
 .bss           0x0223288c        0x0 soundbank_bin.o
 .bss           0x0223288c        0x0 BG3_bas_connexion_eng.o
 .bss           0x0223288c        0x0 BG3_bas_connexion_esp.o
 .bss           0x0223288c        0x0 BG3_bas_connexion_fra.o
 .bss           0x0223288c        0x0 BG3_bas_connexion_ger.o
 .bss           0x0223288c        0x0 BG3_bas_connexion_ita.o
 .bss           0x0223288c        0x0 BG3_bas_deux.o
 .bss           0x0223288c        0x0 BG3_bas_echec_eng.o
 .bss           0x0223288c        0x0 BG3_bas_echec_esp.o
 .bss           0x0223288c        0x0 BG3_bas_echec_fra.o
 .bss           0x0223288c        0x0 BG3_bas_echec_ger.o
 .bss           0x0223288c        0x0 BG3_bas_echec_ita.o
 .bss           0x0223288c        0x0 BG3_bas_equipes_eng.o
 .bss           0x0223288c        0x0 BG3_bas_equipes_esp.o
 .bss           0x0223288c        0x0 BG3_bas_equipes_fra.o
 .bss           0x0223288c        0x0 BG3_bas_equipes_ger.o
 .bss           0x0223288c        0x0 BG3_bas_equipes_ita.o
 .bss           0x0223288c        0x0 BG3_bas_groupes.o
 .bss           0x0223288c        0x0 BG3_bas_menu_eng.o
 .bss           0x0223288c        0x0 BG3_bas_menu_esp.o
 .bss           0x0223288c        0x0 BG3_bas_menu_fra.o
 .bss           0x0223288c        0x0 BG3_bas_menu_ger.o
 .bss           0x0223288c        0x0 BG3_bas_menu_ita.o
 .bss           0x0223288c        0x0 BG3_bas_penalty.o
 .bss           0x0223288c        0x0 BG3_bas_quatres.o
 .bss           0x0223288c        0x0 BG3_bas_reussi_eng.o
 .bss           0x0223288c        0x0 BG3_bas_reussi_esp.o
 .bss           0x0223288c        0x0 BG3_bas_reussi_fra.o
 .bss           0x0223288c        0x0 BG3_bas_reussi_ger.o
 .bss           0x0223288c        0x0 BG3_bas_reussi_ita.o
 .bss           0x0223288c        0x0 BG3_bas_score.o
 .bss           0x0223288c        0x0 BG3_bas_stades_eng.o
 .bss           0x0223288c        0x0 BG3_bas_stades_esp.o
 .bss           0x0223288c        0x0 BG3_bas_stades_fra.o
 .bss           0x0223288c        0x0 BG3_bas_stades_ger.o
 .bss           0x0223288c        0x0 BG3_bas_stades_ita.o
 .bss           0x0223288c        0x0 BG3_bas_wifi_eng.o
 .bss           0x0223288c        0x0 BG3_bas_wifi_esp.o
 .bss           0x0223288c        0x0 BG3_bas_wifi_fra.o
 .bss           0x0223288c        0x0 BG3_bas_wifi_ger.o
 .bss           0x0223288c        0x0 BG3_bas_wifi_ita.o
 .bss           0x0223288c        0x0 BG3_haut_demi_eng.o
 .bss           0x0223288c        0x0 BG3_haut_demi_esp.o
 .bss           0x0223288c        0x0 BG3_haut_demi_fra.o
 .bss           0x0223288c        0x0 BG3_haut_demi_ger.o
 .bss           0x0223288c        0x0 BG3_haut_demi_ita.o
 .bss           0x0223288c        0x0 BG3_haut_finale_eng.o
 .bss           0x0223288c        0x0 BG3_haut_finale_esp.o
 .bss           0x0223288c        0x0 BG3_haut_finale_fra.o
 .bss           0x0223288c        0x0 BG3_haut_finale_ger.o
 .bss           0x0223288c        0x0 BG3_haut_finale_ita.o
 .bss           0x0223288c        0x0 BG3_haut_groupes_eng.o
 .bss           0x0223288c        0x0 BG3_haut_groupes_esp.o
 .bss           0x0223288c        0x0 BG3_haut_groupes_fra.o
 .bss           0x0223288c        0x0 BG3_haut_groupes_ger.o
 .bss           0x0223288c        0x0 BG3_haut_groupes_ita.o
 .bss           0x0223288c        0x0 BG3_haut_huitieme_eng.o
 .bss           0x0223288c        0x0 BG3_haut_huitieme_esp.o
 .bss           0x0223288c        0x0 BG3_haut_huitieme_fra.o
 .bss           0x0223288c        0x0 BG3_haut_huitieme_ger.o
 .bss           0x0223288c        0x0 BG3_haut_huitieme_ita.o
 .bss           0x0223288c        0x0 BG3_haut_quart_eng.o
 .bss           0x0223288c        0x0 BG3_haut_quart_esp.o
 .bss           0x0223288c        0x0 BG3_haut_quart_fra.o
 .bss           0x0223288c        0x0 BG3_haut_quart_ger.o
 .bss           0x0223288c        0x0 BG3_haut_quart_ita.o
 .bss           0x0223288c        0x0 BG3_haut_titre.o
 .bss           0x0223288c        0x0 amazonia.o
 .bss           0x0223288c        0x0 baixada.o
 .bss           0x0223288c        0x0 beirario.o
 .bss           0x0223288c        0x0 black.o
 .bss           0x0223288c        0x0 castelao.o
 .bss           0x0223288c        0x0 credits.o
 .bss           0x0223288c        0x0 devkitpro.o
 .bss           0x0223288c        0x0 dunas.o
 .bss           0x0223288c        0x0 fontenova.o
 .bss           0x0223288c        0x0 intro1.o
 .bss           0x0223288c        0x0 intro2.o
 .bss           0x0223288c        0x0 intro3.o
 .bss           0x0223288c        0x0 licensed.o
 .bss           0x0223288c        0x0 maracana.o
 .bss           0x0223288c        0x0 mineirao.o
 .bss           0x0223288c        0x0 nacional.o
 .bss           0x0223288c        0x0 palib.o
 .bss           0x0223288c        0x0 pantanal.o
 .bss           0x0223288c        0x0 pernambuco.o
 .bss           0x0223288c        0x0 saopaulo.o
 .bss           0x0223288c        0x8 ky_geturl.o
                0x0223288c                ky_errno
                0x02232890                ky_h_errno
 .bss           0x02232894        0x1 main.o
                0x02232894                isDLDISystem
 .bss           0x02232895        0x0 BG2_bas_alg.o
 .bss           0x02232895        0x0 BG2_bas_amazonia.o
 .bss           0x02232895        0x0 BG2_bas_arg.o
 .bss           0x02232895        0x0 BG2_bas_aus.o
 .bss           0x02232895        0x0 BG2_bas_baixada.o
 .bss           0x02232895        0x0 BG2_bas_beirario.o
 .bss           0x02232895        0x0 BG2_bas_bel.o
 .bss           0x02232895        0x0 BG2_bas_bih.o
 .bss           0x02232895        0x0 BG2_bas_bra.o
 .bss           0x02232895        0x0 BG2_bas_castelao.o
 .bss           0x02232895        0x0 BG2_bas_chi.o
 .bss           0x02232895        0x0 BG2_bas_civ.o
 .bss           0x02232895        0x0 BG2_bas_cmr.o
 .bss           0x02232895        0x0 BG2_bas_col.o
 .bss           0x02232895        0x0 BG2_bas_crc.o
 .bss           0x02232895        0x0 BG2_bas_cro.o
 .bss           0x02232895        0x0 BG2_bas_dasdunas.o
 .bss           0x02232895        0x0 BG2_bas_ecu.o
 .bss           0x02232895        0x0 BG2_bas_eng.o
 .bss           0x02232895        0x0 BG2_bas_esp.o
 .bss           0x02232895        0x0 BG2_bas_fontenova.o
 .bss           0x02232895        0x0 BG2_bas_fra.o
 .bss           0x02232895        0x0 BG2_bas_ger.o
 .bss           0x02232895        0x0 BG2_bas_gha.o
 .bss           0x02232895        0x0 BG2_bas_gre.o
 .bss           0x02232895        0x0 BG2_bas_hon.o
 .bss           0x02232895        0x0 BG2_bas_irn.o
 .bss           0x02232895        0x0 BG2_bas_ita.o
 .bss           0x02232895        0x0 BG2_bas_jpn.o
 .bss           0x02232895        0x0 BG2_bas_kor.o
 .bss           0x02232895        0x0 BG2_bas_maracana.o
 .bss           0x02232895        0x0 BG2_bas_mex.o
 .bss           0x02232895        0x0 BG2_bas_mineirao.o
 .bss           0x02232895        0x0 BG2_bas_nacional.o
 .bss           0x02232895        0x0 BG2_bas_ned.o
 .bss           0x02232895        0x0 BG2_bas_nga.o
 .bss           0x02232895        0x0 BG2_bas_pantanal.o
 .bss           0x02232895        0x0 BG2_bas_pernambuco.o
 .bss           0x02232895        0x0 BG2_bas_por.o
 .bss           0x02232895        0x0 BG2_bas_rus.o
 .bss           0x02232895        0x0 BG2_bas_saopaulo.o
 .bss           0x02232895        0x0 BG2_bas_selection.o
 .bss           0x02232895        0x0 BG2_bas_sui.o
 .bss           0x02232895        0x0 BG2_bas_uru.o
 .bss           0x02232895        0x0 BG2_bas_usa.o
 .bss           0x02232895        0x0 newfont.o
 .bss           0x02232895        0x0 c:/devkitPro/PAlib/lib\libpa9.a(PA_BgTiles.o)
 *fill*         0x02232895        0x1 00
 .bss           0x02232896        0x4 c:/devkitPro/PAlib/lib\libpa9.a(PA.o)
                0x02232896                pa_giftotexcolor
                0x02232898                PA_Screen
                0x02232899                PA_MoveSpriteType
 .bss           0x0223289a        0x0 c:/devkitPro/PAlib/lib\libpa9.a(PA_Draw8bit.o)
 .bss           0x0223289a        0x0 c:/devkitPro/PAlib/lib\libpa9.a(PA_Draw.o)
 .bss           0x0223289a        0x0 c:/devkitPro/PAlib/lib\libpa9.a(PA_Error.o)
 .bss           0x0223289a        0x0 c:/devkitPro/PAlib/lib\libpa9.a(PA_Gif.o)
 .bss           0x0223289a        0x0 c:/devkitPro/PAlib/lib\libpa9.a(PA_Inits.o)
 .bss           0x0223289a        0x0 c:/devkitPro/PAlib/lib\libpa9.a(PA_Interrupt.o)
 .bss           0x0223289a        0x0 c:/devkitPro/PAlib/lib\libpa9.a(PA_Keys.o)
 .bss           0x0223289a        0x0 c:/devkitPro/PAlib/lib\libpa9.a(PA_Math.o)
 .bss           0x0223289a        0x0 c:/devkitPro/PAlib/lib\libpa9.a(PA_NewBg.o)
 .bss           0x0223289a        0x0 c:/devkitPro/PAlib/lib\libpa9.a(PA_Palette.o)
 .bss           0x0223289a        0x1 c:/devkitPro/PAlib/lib\libpa9.a(PA_Reco.o)
                0x0223289a                PA_CustomReco
 .bss           0x0223289b        0x0 c:/devkitPro/PAlib/lib\libpa9.a(PA_RTC.o)
 .bss           0x0223289b        0x0 c:/devkitPro/PAlib/lib\libpa9.a(PA_SpriteAnim.o)
 *fill*         0x0223289b        0x1 00
 .bss           0x0223289c        0xc c:/devkitPro/PAlib/lib\libpa9.a(PA_Sprite.o)
                0x0223289c                PA_SpriteExtPrio
                0x022328a0                FirstGfx
                0x022328a4                nspriteanims
 .bss           0x022328a8        0x0 c:/devkitPro/PAlib/lib\libpa9.a(PA_Stuff.o)
 .bss           0x022328a8        0x0 c:/devkitPro/PAlib/lib\libpa9.a(PA_Text8bit.o)
 .bss           0x022328a8        0x0 c:/devkitPro/PAlib/lib\libpa9.a(PA_TextBits.o)
 .bss           0x022328a8        0x8 c:/devkitPro/PAlib/lib\libpa9.a(PA_Text.o)
                0x022328a8                PAtext_pal
                0x022328ac                PA_font
 .bss           0x022328b0        0x0 c:/devkitPro/PAlib/lib\libpa9.a(dgif_lib.o)
 .bss           0x022328b0        0x0 c:/devkitPro/PAlib/lib\libpa9.a(gifalloc.o)
 .bss           0x022328b0        0x4 c:/devkitPro/PAlib/lib\libpa9.a(gif_err.o)
                0x022328b0                _GifError
 .bss           0x022328b4        0x0 c:/devkitPro/PAlib/lib\libpa9.a(PA_TiledFont.o)
 .bss           0x022328b4        0x0 c:/devkitPro/PAlib/lib\libpa9.a(PA_BmpFont0.o)
 .bss           0x022328b4        0x0 c:/devkitPro/PAlib/lib\libpa9.a(PA_BmpFont1.o)
 .bss           0x022328b4        0x0 c:/devkitPro/PAlib/lib\libpa9.a(PA_BmpFont2.o)
 .bss           0x022328b4        0x0 c:/devkitPro/PAlib/lib\libpa9.a(PA_BmpFont3.o)
 .bss           0x022328b4        0x0 c:/devkitPro/PAlib/lib\libpa9.a(PA_BmpFont4.o)
 .bss           0x022328b4        0x0 c:/devkitPro/PAlib/lib\libpa9.a(PA_TiledFont_Map.bin.o)
 .bss           0x022328b4        0x0 c:/devkitPro/PAlib/lib\libpa9.a(PA_TiledFont_Pal.bin.o)
 .bss           0x022328b4        0x0 c:/devkitPro/PAlib/lib\libpa9.a(PA_TiledFont_Tiles.bin.o)
 .bss           0x022328b4        0x0 c:/devkitPro/PAlib/lib\libpa9.a(PA_BmpFont0_Map.bin.o)
 .bss           0x022328b4        0x0 c:/devkitPro/PAlib/lib\libpa9.a(PA_BmpFont0_Sizes.bin.o)
 .bss           0x022328b4        0x0 c:/devkitPro/PAlib/lib\libpa9.a(PA_BmpFont0_Tiles.bin.o)
 .bss           0x022328b4        0x0 c:/devkitPro/PAlib/lib\libpa9.a(PA_BmpFont1_Map.bin.o)
 .bss           0x022328b4        0x0 c:/devkitPro/PAlib/lib\libpa9.a(PA_BmpFont1_Sizes.bin.o)
 .bss           0x022328b4        0x0 c:/devkitPro/PAlib/lib\libpa9.a(PA_BmpFont1_Tiles.bin.o)
 .bss           0x022328b4        0x0 c:/devkitPro/PAlib/lib\libpa9.a(PA_BmpFont2_Map.bin.o)
 .bss           0x022328b4        0x0 c:/devkitPro/PAlib/lib\libpa9.a(PA_BmpFont2_Sizes.bin.o)
 .bss           0x022328b4        0x0 c:/devkitPro/PAlib/lib\libpa9.a(PA_BmpFont2_Tiles.bin.o)
 .bss           0x022328b4        0x0 c:/devkitPro/PAlib/lib\libpa9.a(PA_BmpFont3_Map.bin.o)
 .bss           0x022328b4        0x0 c:/devkitPro/PAlib/lib\libpa9.a(PA_BmpFont3_Sizes.bin.o)
 .bss           0x022328b4        0x0 c:/devkitPro/PAlib/lib\libpa9.a(PA_BmpFont3_Tiles.bin.o)
 .bss           0x022328b4        0x0 c:/devkitPro/PAlib/lib\libpa9.a(PA_BmpFont4_Map.bin.o)
 .bss           0x022328b4        0x0 c:/devkitPro/PAlib/lib\libpa9.a(PA_BmpFont4_Sizes.bin.o)
 .bss           0x022328b4        0x0 c:/devkitPro/PAlib/lib\libpa9.a(PA_BmpFont4_Tiles.bin.o)
 .bss           0x022328b4        0x0 c:/devkitPro/PAlib/lib\libpa9.a(PA_16c.o)
 .bss           0x022328b4        0x0 c:/devkitPro/PAlib/lib\libpa9.a(PA_BgEasy.o)
 .bss           0x022328b4        0x0 c:/devkitPro/PAlib/lib\libpa9.a(PA_BgLargeMap.o)
 .bss           0x022328b4        0x0 c:/devkitPro/PAlib/lib\libpa9.a(PA_BgRot.o)
 .bss           0x022328b4        0x0 c:/devkitPro/PAlib/lib\libpa9.a(PA_Fifo.o)
 .bss           0x022328b4        0x1 c:/devkitPro/PAlib/lib\libpa9.a(PA_Keyboard.o)
                0x022328b4                keyb_screen
 .bss           0x022328b5        0x0 c:/devkitPro/PAlib/lib\libpa9.a(PA_PaletteEx.o)
 .bss           0x022328b5        0x0 c:/devkitPro/PAlib/lib\libpa9.a(keyboard.map.o)
 .bss           0x022328b5        0x0 c:/devkitPro/PAlib/lib\libpa9.a(keyboard.pal.o)
 .bss           0x022328b5        0x0 c:/devkitPro/PAlib/lib\libpa9.a(keyboard.raw.o)
 .bss           0x022328b5        0x0 c:/devkitPro/libnds/lib\libfat.a(libfat.o)
 .bss           0x022328b5        0x0 c:/devkitPro/libnds/lib\libfat.a(partition.o)
 *fill*         0x022328b5        0x3 00
 .bss           0x022328b8        0x4 c:/devkitPro/libnds/lib\libfat.a(cache.o)
 .bss           0x022328bc        0x0 c:/devkitPro/libnds/lib\libfat.a(directory.o)
 .bss           0x022328bc        0x0 c:/devkitPro/libnds/lib\libfat.a(disc.o)
 .bss           0x022328bc        0x0 c:/devkitPro/libnds/lib\libfat.a(fatdir.o)
 .bss           0x022328bc        0x0 c:/devkitPro/libnds/lib\libfat.a(fatfile.o)
 .bss           0x022328bc        0x0 c:/devkitPro/libnds/lib\libfat.a(file_allocation_table.o)
 .bss           0x022328bc        0x0 c:/devkitPro/libnds/lib\libfat.a(filetime.o)
 .bss           0x022328bc        0x0 c:/devkitPro/libnds/lib\libnds9.a(gurumeditation.o)
 .bss           0x022328bc        0x6 c:/devkitPro/libnds/lib\libnds9.a(keys.o)
 .bss           0x022328c2        0x0 c:/devkitPro/libnds/lib\libnds9.a(system.o)
 .bss           0x022328c2        0x0 c:/devkitPro/libnds/lib\libnds9.a(touch.o)
 .bss           0x022328c2        0x0 c:/devkitPro/libnds/lib\libnds9.a(video.o)
 .bss           0x022328c2        0x0 c:/devkitPro/libnds/lib\libnds9.a(dldi.o)
 .bss           0x022328c2        0x0 c:/devkitPro/libnds/lib\libnds9.a(initSystem.o)
 *fill*         0x022328c2        0x2 00
 .bss           0x022328c4        0x8 c:/devkitPro/libnds/lib\libnds9.a(fifosystem.o)
                0x022328c8                processing
 .bss           0x022328cc        0x0 c:/devkitPro/libnds/lib\libnds9.a(interrupts.o)
 .bss           0x022328cc        0x0 c:/devkitPro/libnds/lib\libnds9.a(libnds_exit.o)
 .bss           0x022328cc        0x0 c:/devkitPro/libnds/lib\libnds9.a(dcache.o)
 .bss           0x022328cc        0x0 c:/devkitPro/libnds/lib\libnds9.a(exceptionHandler.o)
 .bss           0x022328cc        0x0 c:/devkitPro/libnds/lib\libnds9.a(dldi_stub.o)
 .bss           0x022328cc        0x0 c:/devkitPro/libnds/lib\libnds9.a(mpu_setup.o)
 .bss           0x022328cc        0x0 c:/devkitPro/libnds/lib\libnds9.a(biosCalls.o)
 .bss           0x022328cc        0x0 c:/devkitPro/libnds/lib\libnds9.a(interruptDispatcher.o)
 .bss           0x022328cc        0x0 c:/devkitPro/libnds/lib\libnds9.a(swiSoftReset.o)
 .bss           0x022328cc        0x0 c:/devkitPro/libnds/lib\libnds9.a(console.o)
 .bss           0x022328cc        0x0 c:/devkitPro/libnds/lib\libnds9.a(exceptions.o)
 .bss           0x022328cc        0x0 c:/devkitPro/libnds/lib\libnds9.a(debugprint.o)
 .bss           0x022328cc        0x0 c:/devkitPro/libnds/lib\libnds9.a(default_font.bin.o)
 .bss           0x022328cc        0x0 c:/devkitPro/libnds/lib\libnds9.a(background.o)
 .bss           0x022328cc        0x0 c:/devkitPro/libnds/lib\libnds9.a(trig.o)
 .bss           0x022328cc        0x0 c:/devkitPro/libnds/lib\libdswifi9.a(sgIP_Hub.o)
 .bss           0x022328cc        0x0 c:/devkitPro/libnds/lib\libdswifi9.a(sgIP_memblock.o)
 .bss           0x022328cc        0x0 c:/devkitPro/libnds/lib\libdswifi9.a(sgIP_sockets.o)
 .bss           0x022328cc       0x10 c:/devkitPro/libnds/lib\libdswifi9.a(wifi_arm9.o)
                0x022328cc                WifiData
                0x022328d0                synchandler
                0x022328d4                packethandler
                0x022328d8                wifi_connect_state
 .bss           0x022328dc        0x0 c:/devkitPro/libnds/lib\libdswifi9.a(spinlock.o)
 .bss           0x022328dc        0x0 c:/devkitPro/libnds/lib\libdswifi9.a(sgIP.o)
 .bss           0x022328dc        0x0 c:/devkitPro/libnds/lib\libdswifi9.a(sgIP_ARP.o)
 .bss           0x022328dc        0x0 c:/devkitPro/libnds/lib\libdswifi9.a(sgIP_DHCP.o)
 .bss           0x022328dc        0x0 c:/devkitPro/libnds/lib\libdswifi9.a(sgIP_DNS.o)
 .bss           0x022328dc        0x0 c:/devkitPro/libnds/lib\libdswifi9.a(sgIP_IP.o)
 .bss           0x022328dc        0x0 c:/devkitPro/libnds/lib\libdswifi9.a(sgIP_TCP.o)
 .bss           0x022328dc        0x0 c:/devkitPro/libnds/lib\libdswifi9.a(sgIP_UDP.o)
 .bss           0x022328dc        0x0 c:/devkitPro/libnds/lib\libdswifi9.a(sgIP_ICMP.o)
 .bss           0x022328dc       0x18 c:/devkitPro/libnds/lib\libmm9.a(mm_comms.o)
 .bss           0x022328f4       0x1c c:/devkitPro/libnds/lib\libmm9.a(mm_main9.o)
                0x022328f4                mmcbMemory
                0x022328f8                mmModuleCount
                0x022328fc                mmSampleCount
                0x02232900                mmMemoryBank
                0x02232900                mmModuleBank
                0x02232904                mmSampleBank
                0x02232908                mmCallback
                0x0223290c                mmActiveStatus
 .bss           0x02232910        0x0 c:/devkitPro/libnds/lib\libmm9.a(mm_memory.o)
 .bss           0x02232910       0x44 c:/devkitPro/libnds/lib\libmm9.a(mm_soundbank.o)
 .bss           0x02232954        0x0 c:/devkitPro/libnds/lib\libmm9.a(mm_flusher.o)
 .bss           0x02232954        0x0 c:/devkitpro/devkitarm/bin/../lib/gcc/arm-eabi/4.4.3/thumb\libgcc.a(_udivsi3.o)
 .bss           0x02232954        0x0 c:/devkitpro/devkitarm/bin/../lib/gcc/arm-eabi/4.4.3/thumb\libgcc.a(_divsi3.o)
 .bss           0x02232954        0x0 c:/devkitpro/devkitarm/bin/../lib/gcc/arm-eabi/4.4.3/thumb\libgcc.a(_dvmd_tls.o)
 .bss           0x02232954        0x0 c:/devkitpro/devkitarm/bin/../lib/gcc/arm-eabi/4.4.3/thumb\libgcc.a(_arm_addsubdf3.o)
 .bss           0x02232954        0x0 c:/devkitpro/devkitarm/bin/../lib/gcc/arm-eabi/4.4.3/thumb\libgcc.a(_arm_muldivdf3.o)
 .bss           0x02232954        0x0 c:/devkitpro/devkitarm/bin/../lib/gcc/arm-eabi/4.4.3/thumb\libgcc.a(_arm_cmpdf2.o)
 .bss           0x02232954        0x0 c:/devkitpro/devkitarm/bin/../lib/gcc/arm-eabi/4.4.3/thumb\libgcc.a(_arm_fixdfsi.o)
 .bss           0x02232954        0x0 c:/devkitpro/devkitarm/bin/../lib/gcc/arm-eabi/4.4.3/thumb\libgcc.a(_arm_addsubsf3.o)
 .bss           0x02232954        0x0 c:/devkitpro/devkitarm/bin/../lib/gcc/arm-eabi/4.4.3/thumb\libgcc.a(_arm_muldivsf3.o)
 .bss           0x02232954        0x0 c:/devkitpro/devkitarm/bin/../lib/gcc/arm-eabi/4.4.3/thumb\libgcc.a(_muldi3.o)
 .bss           0x02232954        0x0 c:/devkitpro/devkitarm/bin/../lib/gcc/arm-eabi/4.4.3/../../../../arm-eabi/lib/thumb\libg.a(lib_a-bsearch.o)
 .bss           0x02232954        0x0 c:/devkitpro/devkitarm/bin/../lib/gcc/arm-eabi/4.4.3/../../../../arm-eabi/lib/thumb\libg.a(lib_a-calloc.o)
 .bss           0x02232954        0x0 c:/devkitpro/devkitarm/bin/../lib/gcc/arm-eabi/4.4.3/../../../../arm-eabi/lib/thumb\libg.a(lib_a-callocr.o)
 .bss           0x02232954        0x0 c:/devkitpro/devkitarm/bin/../lib/gcc/arm-eabi/4.4.3/../../../../arm-eabi/lib/thumb\libg.a(lib_a-errno.o)
 .bss           0x02232954        0x0 c:/devkitpro/devkitarm/bin/../lib/gcc/arm-eabi/4.4.3/../../../../arm-eabi/lib/thumb\libg.a(lib_a-fclose.o)
 .bss           0x02232954        0x0 c:/devkitpro/devkitarm/bin/../lib/gcc/arm-eabi/4.4.3/../../../../arm-eabi/lib/thumb\libg.a(lib_a-fflush.o)
 .bss           0x02232954        0x0 c:/devkitpro/devkitarm/bin/../lib/gcc/arm-eabi/4.4.3/../../../../arm-eabi/lib/thumb\libg.a(lib_a-findfp.o)
 .bss           0x02232954        0x0 c:/devkitpro/devkitarm/bin/../lib/gcc/arm-eabi/4.4.3/../../../../arm-eabi/lib/thumb\libg.a(lib_a-fopen.o)
 .bss           0x02232954        0x0 c:/devkitpro/devkitarm/bin/../lib/gcc/arm-eabi/4.4.3/../../../../arm-eabi/lib/thumb\libg.a(lib_a-fprintf.o)
 .bss           0x02232954        0x0 c:/devkitpro/devkitarm/bin/../lib/gcc/arm-eabi/4.4.3/../../../../arm-eabi/lib/thumb\libg.a(lib_a-fread.o)
 .bss           0x02232954        0x0 c:/devkitpro/devkitarm/bin/../lib/gcc/arm-eabi/4.4.3/../../../../arm-eabi/lib/thumb\libg.a(lib_a-freer.o)
 .bss           0x02232954        0x0 c:/devkitpro/devkitarm/bin/../lib/gcc/arm-eabi/4.4.3/../../../../arm-eabi/lib/thumb\libg.a(lib_a-fseek.o)
 .bss           0x02232954        0x0 c:/devkitpro/devkitarm/bin/../lib/gcc/arm-eabi/4.4.3/../../../../arm-eabi/lib/thumb\libg.a(lib_a-ftell.o)
 .bss           0x02232954        0x0 c:/devkitpro/devkitarm/bin/../lib/gcc/arm-eabi/4.4.3/../../../../arm-eabi/lib/thumb\libg.a(lib_a-fwalk.o)
 .bss           0x02232954        0x0 c:/devkitpro/devkitarm/bin/../lib/gcc/arm-eabi/4.4.3/../../../../arm-eabi/lib/thumb\libg.a(lib_a-fwrite.o)
 .bss           0x02232954        0x0 c:/devkitpro/devkitarm/bin/../lib/gcc/arm-eabi/4.4.3/../../../../arm-eabi/lib/thumb\libg.a(lib_a-gmtime.o)
 .bss           0x02232954        0x0 c:/devkitpro/devkitarm/bin/../lib/gcc/arm-eabi/4.4.3/../../../../arm-eabi/lib/thumb\libg.a(lib_a-gmtime_r.o)
 .bss           0x02232954        0x0 c:/devkitpro/devkitarm/bin/../lib/gcc/arm-eabi/4.4.3/../../../../arm-eabi/lib/thumb\libg.a(lib_a-impure.o)
 .bss           0x02232954        0x0 c:/devkitpro/devkitarm/bin/../lib/gcc/arm-eabi/4.4.3/../../../../arm-eabi/lib/thumb\libg.a(lib_a-init.o)
 .bss           0x02232954        0x0 c:/devkitpro/devkitarm/bin/../lib/gcc/arm-eabi/4.4.3/../../../../arm-eabi/lib/thumb\libg.a(lib_a-iprintf.o)
 .bss           0x02232954        0x0 c:/devkitpro/devkitarm/bin/../lib/gcc/arm-eabi/4.4.3/../../../../arm-eabi/lib/thumb\libg.a(lib_a-lcltime_r.o)
 .bss           0x02232954      0x2b8 c:/devkitpro/devkitarm/bin/../lib/gcc/arm-eabi/4.4.3/../../../../arm-eabi/lib/thumb\libg.a(lib_a-locale.o)
                0x02232c00                __nlocale_changed
                0x02232c04                __mlocale_changed
                0x02232c08                _PathLocale
 .bss           0x02232c0c        0x0 c:/devkitpro/devkitarm/bin/../lib/gcc/arm-eabi/4.4.3/../../../../arm-eabi/lib/thumb\libg.a(lib_a-makebuf.o)
 .bss           0x02232c0c        0x0 c:/devkitpro/devkitarm/bin/../lib/gcc/arm-eabi/4.4.3/../../../../arm-eabi/lib/thumb\libg.a(lib_a-malloc.o)
 .bss           0x02232c0c       0x34 c:/devkitpro/devkitarm/bin/../lib/gcc/arm-eabi/4.4.3/../../../../arm-eabi/lib/thumb\libg.a(lib_a-mallocr.o)
                0x02232c0c                __malloc_top_pad
                0x02232c10                __malloc_current_mallinfo
                0x02232c38                __malloc_max_sbrked_mem
                0x02232c3c                __malloc_max_total_mem
 .bss           0x02232c40        0x0 c:/devkitpro/devkitarm/bin/../lib/gcc/arm-eabi/4.4.3/../../../../arm-eabi/lib/thumb\libg.a(lib_a-mbrtowc.o)
 .bss           0x02232c40        0x0 c:/devkitpro/devkitarm/bin/../lib/gcc/arm-eabi/4.4.3/../../../../arm-eabi/lib/thumb\libg.a(lib_a-mbsrtowcs.o)
 .bss           0x02232c40        0x0 c:/devkitpro/devkitarm/bin/../lib/gcc/arm-eabi/4.4.3/../../../../arm-eabi/lib/thumb\libg.a(lib_a-mbtowc_r.o)
 .bss           0x02232c40        0x0 c:/devkitpro/devkitarm/bin/../lib/gcc/arm-eabi/4.4.3/../../../../arm-eabi/lib/thumb\libg.a(lib_a-memcmp.o)
 .bss           0x02232c40        0x0 c:/devkitpro/devkitarm/bin/../lib/gcc/arm-eabi/4.4.3/../../../../arm-eabi/lib/thumb\libg.a(lib_a-memcpy.o)
 .bss           0x02232c40        0x0 c:/devkitpro/devkitarm/bin/../lib/gcc/arm-eabi/4.4.3/../../../../arm-eabi/lib/thumb\libg.a(lib_a-memmove.o)
 .bss           0x02232c40        0x0 c:/devkitpro/devkitarm/bin/../lib/gcc/arm-eabi/4.4.3/../../../../arm-eabi/lib/thumb\libg.a(lib_a-memset.o)
 .bss           0x02232c40        0x0 c:/devkitpro/devkitarm/bin/../lib/gcc/arm-eabi/4.4.3/../../../../arm-eabi/lib/thumb\libg.a(lib_a-mktime.o)
 .bss           0x02232c40        0x0 c:/devkitpro/devkitarm/bin/../lib/gcc/arm-eabi/4.4.3/../../../../arm-eabi/lib/thumb\libg.a(lib_a-mktm_r.o)
 .bss           0x02232c40        0x0 c:/devkitpro/devkitarm/bin/../lib/gcc/arm-eabi/4.4.3/../../../../arm-eabi/lib/thumb\libg.a(lib_a-mlock.o)
 .bss           0x02232c40        0x0 c:/devkitpro/devkitarm/bin/../lib/gcc/arm-eabi/4.4.3/../../../../arm-eabi/lib/thumb\libg.a(lib_a-realloc.o)
 .bss           0x02232c40        0x0 c:/devkitpro/devkitarm/bin/../lib/gcc/arm-eabi/4.4.3/../../../../arm-eabi/lib/thumb\libg.a(lib_a-reallocr.o)
 .bss           0x02232c40        0x0 c:/devkitpro/devkitarm/bin/../lib/gcc/arm-eabi/4.4.3/../../../../arm-eabi/lib/thumb\libg.a(lib_a-refill.o)
 .bss           0x02232c40        0x0 c:/devkitpro/devkitarm/bin/../lib/gcc/arm-eabi/4.4.3/../../../../arm-eabi/lib/thumb\libg.a(lib_a-rewind.o)
 .bss           0x02232c40        0x0 c:/devkitpro/devkitarm/bin/../lib/gcc/arm-eabi/4.4.3/../../../../arm-eabi/lib/thumb\libg.a(lib_a-setvbuf.o)
 .bss           0x02232c40        0x0 c:/devkitpro/devkitarm/bin/../lib/gcc/arm-eabi/4.4.3/../../../../arm-eabi/lib/thumb\libg.a(lib_a-siscanf.o)
 .bss           0x02232c40        0x0 c:/devkitpro/devkitarm/bin/../lib/gcc/arm-eabi/4.4.3/../../../../arm-eabi/lib/thumb\libg.a(lib_a-snprintf.o)
 .bss           0x02232c40        0x0 c:/devkitpro/devkitarm/bin/../lib/gcc/arm-eabi/4.4.3/../../../../arm-eabi/lib/thumb\libg.a(lib_a-sprintf.o)
 .bss           0x02232c40        0x0 c:/devkitpro/devkitarm/bin/../lib/gcc/arm-eabi/4.4.3/../../../../arm-eabi/lib/thumb\libg.a(lib_a-stdio.o)
 .bss           0x02232c40        0x0 c:/devkitpro/devkitarm/bin/../lib/gcc/arm-eabi/4.4.3/../../../../arm-eabi/lib/thumb\libg.a(lib_a-strcasecmp.o)
 .bss           0x02232c40        0x0 c:/devkitpro/devkitarm/bin/../lib/gcc/arm-eabi/4.4.3/../../../../arm-eabi/lib/thumb\libg.a(lib_a-strcat.o)
 .bss           0x02232c40        0x0 c:/devkitpro/devkitarm/bin/../lib/gcc/arm-eabi/4.4.3/../../../../arm-eabi/lib/thumb\libg.a(lib_a-strchr.o)
 .bss           0x02232c40        0x0 c:/devkitpro/devkitarm/bin/../lib/gcc/arm-eabi/4.4.3/../../../../arm-eabi/lib/thumb\libg.a(lib_a-strcmp.o)
 .bss           0x02232c40        0x0 c:/devkitpro/devkitarm/bin/../lib/gcc/arm-eabi/4.4.3/../../../../arm-eabi/lib/thumb\libg.a(lib_a-strcpy.o)
 .bss           0x02232c40        0x0 c:/devkitpro/devkitarm/bin/../lib/gcc/arm-eabi/4.4.3/../../../../arm-eabi/lib/thumb\libg.a(lib_a-strlcpy.o)
 .bss           0x02232c40        0x0 c:/devkitpro/devkitarm/bin/../lib/gcc/arm-eabi/4.4.3/../../../../arm-eabi/lib/thumb\libg.a(lib_a-strlen.o)
 .bss           0x02232c40        0x0 c:/devkitpro/devkitarm/bin/../lib/gcc/arm-eabi/4.4.3/../../../../arm-eabi/lib/thumb\libg.a(lib_a-strncasecmp.o)
 .bss           0x02232c40        0x0 c:/devkitpro/devkitarm/bin/../lib/gcc/arm-eabi/4.4.3/../../../../arm-eabi/lib/thumb\libg.a(lib_a-strncmp.o)
 .bss           0x02232c40        0x0 c:/devkitpro/devkitarm/bin/../lib/gcc/arm-eabi/4.4.3/../../../../arm-eabi/lib/thumb\libg.a(lib_a-strncpy.o)
 .bss           0x02232c40        0x0 c:/devkitpro/devkitarm/bin/../lib/gcc/arm-eabi/4.4.3/../../../../arm-eabi/lib/thumb\libg.a(lib_a-strnlen.o)
 .bss           0x02232c40        0x0 c:/devkitpro/devkitarm/bin/../lib/gcc/arm-eabi/4.4.3/../../../../arm-eabi/lib/thumb\libg.a(lib_a-strpbrk.o)
 .bss           0x02232c40        0x0 c:/devkitpro/devkitarm/bin/../lib/gcc/arm-eabi/4.4.3/../../../../arm-eabi/lib/thumb\libg.a(lib_a-strrchr.o)
 .bss           0x02232c40        0x0 c:/devkitpro/devkitarm/bin/../lib/gcc/arm-eabi/4.4.3/../../../../arm-eabi/lib/thumb\libg.a(lib_a-strstr.o)
 .bss           0x02232c40        0x0 c:/devkitpro/devkitarm/bin/../lib/gcc/arm-eabi/4.4.3/../../../../arm-eabi/lib/thumb\libg.a(lib_a-strtol.o)
 .bss           0x02232c40        0x0 c:/devkitpro/devkitarm/bin/../lib/gcc/arm-eabi/4.4.3/../../../../arm-eabi/lib/thumb\libg.a(lib_a-strtoul.o)
 .bss           0x02232c40        0x0 c:/devkitpro/devkitarm/bin/../lib/gcc/arm-eabi/4.4.3/../../../../arm-eabi/lib/thumb\libg.a(lib_a-svfiscanf.o)
 .bss           0x02232c40        0x0 c:/devkitpro/devkitarm/bin/../lib/gcc/arm-eabi/4.4.3/../../../../arm-eabi/lib/thumb\libg.a(lib_a-svfprintf.o)
 .bss           0x02232c40        0x0 c:/devkitpro/devkitarm/bin/../lib/gcc/arm-eabi/4.4.3/../../../../arm-eabi/lib/thumb\libg.a(lib_a-sysclose.o)
 .bss           0x02232c40        0x0 c:/devkitpro/devkitarm/bin/../lib/gcc/arm-eabi/4.4.3/../../../../arm-eabi/lib/thumb\libg.a(lib_a-syslseek.o)
 .bss           0x02232c40        0x0 c:/devkitpro/devkitarm/bin/../lib/gcc/arm-eabi/4.4.3/../../../../arm-eabi/lib/thumb\libg.a(lib_a-sysopen.o)
 .bss           0x02232c40        0x0 c:/devkitpro/devkitarm/bin/../lib/gcc/arm-eabi/4.4.3/../../../../arm-eabi/lib/thumb\libg.a(lib_a-sysread.o)
 .bss           0x02232c40        0x0 c:/devkitpro/devkitarm/bin/../lib/gcc/arm-eabi/4.4.3/../../../../arm-eabi/lib/thumb\libg.a(lib_a-sysstat.o)
 .bss           0x02232c40        0x0 c:/devkitpro/devkitarm/bin/../lib/gcc/arm-eabi/4.4.3/../../../../arm-eabi/lib/thumb\libg.a(lib_a-time.o)
 .bss           0x02232c40        0x0 c:/devkitpro/devkitarm/bin/../lib/gcc/arm-eabi/4.4.3/../../../../arm-eabi/lib/thumb\libg.a(lib_a-towlower.o)
 .bss           0x02232c40        0x0 c:/devkitpro/devkitarm/bin/../lib/gcc/arm-eabi/4.4.3/../../../../arm-eabi/lib/thumb\libg.a(lib_a-towupper.o)
 .bss           0x02232c40        0x0 c:/devkitpro/devkitarm/bin/../lib/gcc/arm-eabi/4.4.3/../../../../arm-eabi/lib/thumb\libg.a(lib_a-tzlock.o)
 .bss           0x02232c40        0x8 c:/devkitpro/devkitarm/bin/../lib/gcc/arm-eabi/4.4.3/../../../../arm-eabi/lib/thumb\libg.a(lib_a-tzvars.o)
                0x02232c40                _daylight
                0x02232c44                _timezone
 .bss           0x02232c48        0x0 c:/devkitpro/devkitarm/bin/../lib/gcc/arm-eabi/4.4.3/../../../../arm-eabi/lib/thumb\libg.a(lib_a-ungetc.o)
 .bss           0x02232c48        0x0 c:/devkitpro/devkitarm/bin/../lib/gcc/arm-eabi/4.4.3/../../../../arm-eabi/lib/thumb\libg.a(lib_a-vfiprintf.o)
 .bss           0x02232c48        0x0 c:/devkitpro/devkitarm/bin/../lib/gcc/arm-eabi/4.4.3/../../../../arm-eabi/lib/thumb\libg.a(lib_a-vfprintf.o)
 .bss           0x02232c48        0x0 c:/devkitpro/devkitarm/bin/../lib/gcc/arm-eabi/4.4.3/../../../../arm-eabi/lib/thumb\libg.a(lib_a-wcrtomb.o)
 .bss           0x02232c48        0x0 c:/devkitpro/devkitarm/bin/../lib/gcc/arm-eabi/4.4.3/../../../../arm-eabi/lib/thumb\libg.a(lib_a-wcsrtombs.o)
 .bss           0x02232c48        0x0 c:/devkitpro/devkitarm/bin/../lib/gcc/arm-eabi/4.4.3/../../../../arm-eabi/lib/thumb\libg.a(lib_a-wctob.o)
 .bss           0x02232c48        0x0 c:/devkitpro/devkitarm/bin/../lib/gcc/arm-eabi/4.4.3/../../../../arm-eabi/lib/thumb\libg.a(lib_a-wctomb_r.o)
 .bss           0x02232c48        0x0 c:/devkitpro/devkitarm/bin/../lib/gcc/arm-eabi/4.4.3/../../../../arm-eabi/lib/thumb\libg.a(lib_a-wsetup.o)
 .bss           0x02232c48        0x0 c:/devkitpro/devkitarm/bin/../lib/gcc/arm-eabi/4.4.3/../../../../arm-eabi/lib/thumb\libg.a(lib_a-ctype_.o)
 .bss           0x02232c48        0x0 c:/devkitpro/devkitarm/bin/../lib/gcc/arm-eabi/4.4.3/../../../../arm-eabi/lib/thumb\libg.a(lib_a-div.o)
 .bss           0x02232c48        0x0 c:/devkitpro/devkitarm/bin/../lib/gcc/arm-eabi/4.4.3/../../../../arm-eabi/lib/thumb\libg.a(lib_a-dtoa.o)
 .bss           0x02232c48        0x0 c:/devkitpro/devkitarm/bin/../lib/gcc/arm-eabi/4.4.3/../../../../arm-eabi/lib/thumb\libg.a(lib_a-flags.o)
 .bss           0x02232c48        0x0 c:/devkitpro/devkitarm/bin/../lib/gcc/arm-eabi/4.4.3/../../../../arm-eabi/lib/thumb\libg.a(lib_a-fputwc.o)
 .bss           0x02232c48        0x0 c:/devkitpro/devkitarm/bin/../lib/gcc/arm-eabi/4.4.3/../../../../arm-eabi/lib/thumb\libg.a(lib_a-fvwrite.o)
 .bss           0x02232c48        0x0 c:/devkitpro/devkitarm/bin/../lib/gcc/arm-eabi/4.4.3/../../../../arm-eabi/lib/thumb\libg.a(lib_a-getenv_r.o)
 .bss           0x02232c48        0x0 c:/devkitpro/devkitarm/bin/../lib/gcc/arm-eabi/4.4.3/../../../../arm-eabi/lib/thumb\libg.a(lib_a-gettzinfo.o)
 .bss           0x02232c48        0x0 c:/devkitpro/devkitarm/bin/../lib/gcc/arm-eabi/4.4.3/../../../../arm-eabi/lib/thumb\libg.a(lib_a-iswspace.o)
 .bss           0x02232c48        0x0 c:/devkitpro/devkitarm/bin/../lib/gcc/arm-eabi/4.4.3/../../../../arm-eabi/lib/thumb\libg.a(lib_a-jp2uc.o)
 .bss           0x02232c48        0x0 c:/devkitpro/devkitarm/bin/../lib/gcc/arm-eabi/4.4.3/../../../../arm-eabi/lib/thumb\libg.a(lib_a-mbsnrtowcs.o)
 .bss           0x02232c48        0x0 c:/devkitpro/devkitarm/bin/../lib/gcc/arm-eabi/4.4.3/../../../../arm-eabi/lib/thumb\libg.a(lib_a-memchr.o)
 .bss           0x02232c48        0x0 c:/devkitpro/devkitarm/bin/../lib/gcc/arm-eabi/4.4.3/../../../../arm-eabi/lib/thumb\libg.a(lib_a-mprec.o)
 .bss           0x02232c48        0x0 c:/devkitpro/devkitarm/bin/../lib/gcc/arm-eabi/4.4.3/../../../../arm-eabi/lib/thumb\libg.a(lib_a-s_fpclassify.o)
 .bss           0x02232c48        0x0 c:/devkitpro/devkitarm/bin/../lib/gcc/arm-eabi/4.4.3/../../../../arm-eabi/lib/thumb\libg.a(lib_a-sccl.o)
 .bss           0x02232c48        0x0 c:/devkitpro/devkitarm/bin/../lib/gcc/arm-eabi/4.4.3/../../../../arm-eabi/lib/thumb\libg.a(lib_a-svfiprintf.o)
 .bss           0x02232c48        0x0 c:/devkitpro/devkitarm/bin/../lib/gcc/arm-eabi/4.4.3/../../../../arm-eabi/lib/thumb\libg.a(lib_a-wbuf.o)
 .bss           0x02232c48        0x0 c:/devkitpro/devkitarm/bin/../lib/gcc/arm-eabi/4.4.3/../../../../arm-eabi/lib/thumb\libg.a(lib_a-wcsnrtombs.o)
 .bss           0x02232c48        0x4 c:/devkitpro/devkitarm/bin/../lib/gcc/arm-eabi/4.4.3/../../../../arm-eabi/lib/thumb\libg.a(lib_a-environ.o)
 .bss           0x02232c4c        0x0 c:/devkitpro/devkitarm/bin/../lib/gcc/arm-eabi/4.4.3/../../../../arm-eabi/lib/thumb\libg.a(lib_a-envlock.o)
 .bss           0x02232c4c        0x0 c:/devkitpro/devkitarm/bin/../lib/gcc/arm-eabi/4.4.3/../../../../arm-eabi/lib/thumb\libsysbase.a(iosupport.o)
 .bss           0x02232c4c        0x0 c:/devkitpro/devkitarm/bin/../lib/gcc/arm-eabi/4.4.3/../../../../arm-eabi/lib/thumb\libsysbase.a(close.o)
 .bss           0x02232c4c        0x0 c:/devkitpro/devkitarm/bin/../lib/gcc/arm-eabi/4.4.3/../../../../arm-eabi/lib/thumb\libsysbase.a(fstat.o)
 .bss           0x02232c4c        0x0 c:/devkitpro/devkitarm/bin/../lib/gcc/arm-eabi/4.4.3/../../../../arm-eabi/lib/thumb\libsysbase.a(isatty.o)
 .bss           0x02232c4c        0x0 c:/devkitpro/devkitarm/bin/../lib/gcc/arm-eabi/4.4.3/../../../../arm-eabi/lib/thumb\libsysbase.a(lseek.o)
 .bss           0x02232c4c        0x0 c:/devkitpro/devkitarm/bin/../lib/gcc/arm-eabi/4.4.3/../../../../arm-eabi/lib/thumb\libsysbase.a(open.o)
 .bss           0x02232c4c        0x0 c:/devkitpro/devkitarm/bin/../lib/gcc/arm-eabi/4.4.3/../../../../arm-eabi/lib/thumb\libsysbase.a(read.o)
 .bss           0x02232c4c        0x4 c:/devkitpro/devkitarm/bin/../lib/gcc/arm-eabi/4.4.3/../../../../arm-eabi/lib/thumb\libsysbase.a(sbrk.o)
 .bss           0x02232c50        0x0 c:/devkitpro/devkitarm/bin/../lib/gcc/arm-eabi/4.4.3/../../../../arm-eabi/lib/thumb\libsysbase.a(stat.o)
 .bss           0x02232c50        0x0 c:/devkitpro/devkitarm/bin/../lib/gcc/arm-eabi/4.4.3/../../../../arm-eabi/lib/thumb\libsysbase.a(times.o)
 .bss           0x02232c50        0x0 c:/devkitpro/devkitarm/bin/../lib/gcc/arm-eabi/4.4.3/../../../../arm-eabi/lib/thumb\libsysbase.a(write.o)
 .bss           0x02232c50        0x8 c:/devkitpro/devkitarm/bin/../lib/gcc/arm-eabi/4.4.3/../../../../arm-eabi/lib/thumb\libsysbase.a(malloc_vars.o)
                0x02232c50                fake_heap_end
                0x02232c54                fake_heap_start
 .bss           0x02232c58        0x0 c:/devkitpro/devkitarm/bin/../lib/gcc/arm-eabi/4.4.3/../../../../arm-eabi/lib/thumb\libsysbase.a(chdir.o)
 .bss           0x02232c58        0x0 c:/devkitpro/devkitarm/bin/../lib/gcc/arm-eabi/4.4.3/../../../../arm-eabi/lib/thumb\libsysbase.a(build_argv.o)
 .bss           0x02232c58        0x8 c:/devkitpro/devkitarm/bin/../lib/gcc/arm-eabi/4.4.3/../../../../arm-eabi/lib/thumb\libsysbase.a(syscall_support.o)
                0x02232c58                __syscalls
 .bss           0x02232c60     0x1000 c:/devkitpro/devkitarm/bin/../lib/gcc/arm-eabi/4.4.3/../../../../arm-eabi/lib/thumb\libsysbase.a(handle_manager.o)
 .bss           0x02233c60        0x0 c:/devkitpro/devkitarm/bin/../lib/gcc/arm-eabi/4.4.3/../../../../arm-eabi/lib/thumb\libsysbase.a(dirent.o)
 .bss           0x02233c60        0x0 c:/devkitpro/devkitarm/bin/../lib/gcc/arm-eabi/4.4.3/../../../../arm-eabi/lib/thumb\libsysbase.a(dir.o)
 .bss           0x02233c60        0x0 c:/devkitpro/devkitarm/bin/../lib/gcc/arm-eabi/4.4.3/thumb/crtend.o
 .bss           0x02233c60        0x0 c:/devkitpro/devkitarm/bin/../lib/gcc/arm-eabi/4.4.3/thumb/crtn.o
 *(COMMON)
 COMMON         0x02233c60     0x105e main.o
                0x02233c60                entrer_score
                0x02233c61                selection_match
                0x02233c64                j
                0x02233c68                selection_y
                0x02233c6c                Finales
                0x02233c70                quatrieme
                0x02233c71                groupe_courant
                0x02233c74                Quarts
                0x02233c7c                Demi
                0x02233c80                quarts
                0x02233d30                state
                0x02233d31                selection
                0x02233d34                Huitiemes
                0x02233d44                stade_courant
                0x02233d45                huitieme_courant
                0x02233d46                premier
                0x02233d47                troisieme
                0x02233d48                i
                0x02233d4c                penalty
                0x02233d50                buffer
                0x02233d54                startmenu
                0x02233d58                equipe
                0x02234258                huitieme
                0x022343b8                deuxieme
                0x022343b9                langue
                0x022343bc                demi
                0x02234414                match
                0x02234c54                finales
                0x02234cac                groupe
                0x02234cbc                maj
                0x02234cbd                equipe_courant
 *fill*         0x02234cbe        0x2 00
 COMMON         0x02234cc0      0x3d0 c:/devkitPro/PAlib/lib\libpa9.a(PA_BgTiles.o)
                0x02234cc0                PA_parallaxY
                0x02234ce0                PA_parallaxX
                0x02234d00                tempsize
                0x02234d04                charblocks
                0x02234d90                PA_BgInfo
                0x02234fb0                scrollpos
 COMMON         0x02235090      0x22c c:/devkitPro/PAlib/lib\libpa9.a(PA.o)
                0x02235090                PA_ScreenSpace
                0x02235094                PadPointer
                0x02235098                pa_checklid
                0x0223509c                PA_IPC
                0x02235234                Pad
                0x0223525c                Stylus
                0x02235278                PA_bgmap
                0x02235298                PA_GifInfo
                0x022352ac                PA_MovedSprite
 COMMON         0x022352bc        0x2 c:/devkitPro/PAlib/lib\libpa9.a(PA_Draw8bit.o)
                0x022352bc                pa8bitbuffer
 *fill*         0x022352be        0x2 00
 COMMON         0x022352c0      0x226 c:/devkitPro/PAlib/lib\libpa9.a(PA_Draw.o)
                0x022352c0                PA_olddowntime
                0x022352c4                PA_DrawBg32
                0x022352cc                PA_DrawBg
                0x022352d4                PA_oldx
                0x022352d8                PA_drawsize
                0x022352dc                PA_oldy
                0x022352e0                tempvar
                0x022352e4                PA_temppal
                0x022354e4                PA_nBit
 *fill*         0x022354e6        0x2 00
 COMMON         0x022354e8      0x815 c:/devkitPro/PAlib/lib\libpa9.a(PA_Gif.o)
                0x022354e8                temppalette
                0x022354ec                gifheight
                0x022354ee                gifwidth
                0x022354f0                LineBuf
                0x02235cf0                gifinfo
                0x02235cf4                m
                0x02235cf8                tempscreen
                0x02235cfc                GifBits
 *fill*         0x02235cfd        0x3 00
 COMMON         0x02235d00       0x50 c:/devkitPro/PAlib/lib\libpa9.a(PA_Interrupt.o)
                0x02235d00                PA_VBLCounter
                0x02235d40                PA_VBLCounterOn
 COMMON         0x02235d50        0x1 c:/devkitPro/PAlib/lib\libpa9.a(PA_Keys.o)
                0x02235d50                _PA_LidDown
 *fill*         0x02235d51        0x3 00
 COMMON         0x02235d54        0x4 c:/devkitPro/PAlib/lib\libpa9.a(PA_Palette.o)
                0x02235d54                PA_ExtPal
 COMMON         0x02235d58     0xa9bc c:/devkitPro/PAlib/lib\libpa9.a(PA_Reco.o)
                0x02235d58                PA_Reco
                0x02235d64                PA_RecoInfo
                0x02235d7c                PA_StylusPos
                0x0223f9bc                PA_CustomShape
                0x02240704                PA_RecoShape
 COMMON         0x02240714       0x5a c:/devkitPro/PAlib/lib\libpa9.a(PA_RTC.o)
                0x02240714                PA_RTC
                0x0224071c                PA_UserInfo
 *fill*         0x0224076e        0x2 00
 COMMON         0x02240770     0x8104 c:/devkitPro/PAlib/lib\libpa9.a(PA_Sprite.o)
                0x02240770                free_mem
                0x02242770                n_free_mem
                0x02242774                PA_SpritePrio
                0x02242874                used_mem
                0x02243074                spriteanims
                0x02245474                PA_SpriteAnimP
                0x02247474                PA_first
                0x02247674                PA_next
                0x02247774                obj_per_gfx
                0x02247f74                PA_obj
                0x02248774                DualSpriteX
 COMMON         0x02248874     0x301a c:/devkitPro/PAlib/lib\libpa9.a(PA_TextBits.o)
                0x02248874                PA_LetterPos
                0x0224b878                pa_bittextpoliceheight
                0x0224b884                pa_bittextsizes
 *fill*         0x0224b88e        0x2 00
 COMMON         0x0224b890       0x3c c:/devkitPro/PAlib/lib\libpa9.a(PA_Text.o)
                0x0224b890                PA_texttiles
                0x0224b898                PA_TextBox
                0x0224b8a0                PAbgtext
                0x0224b8a4                pa_printx
                0x0224b8ac                pa_printy
                0x0224b8b4                textcol
                0x0224b8b8                pa_printscroll
                0x0224b8bc                PA_textpal
                0x0224b8c4                PA_textmap
 COMMON         0x0224b8cc       0x10 c:/devkitPro/PAlib/lib\libpa9.a(PA_16c.o)
                0x0224b8cc                PA_Draw16
                0x0224b8d4                PA_Draw1632
 COMMON         0x0224b8dc        0x8 c:/devkitPro/PAlib/lib\libpa9.a(PA_BgRot.o)
                0x0224b8dc                rotbg_size
 COMMON         0x0224b8e4       0x12 c:/devkitPro/PAlib/lib\libpa9.a(PA_Keyboard.o)
                0x0224b8e4                PA_Keyboard_Struct
 *fill*         0x0224b8f6        0x2 00
 COMMON         0x0224b8f8      0xa40 c:/devkitPro/libnds/lib\libnds9.a(fifosystem.o)
                0x0224b8f8                fifo_datamsg_data
                0x0224b938                fifo_buffer
                0x0224c138                fifo_value32_func
                0x0224c178                fifo_address_func
                0x0224c1b8                fifo_value32_data
                0x0224c1f8                fifo_value32_queue
                0x0224c238                fifo_data_queue
                0x0224c278                fifo_address_data
                0x0224c2b8                fifo_datamsg_func
                0x0224c2f8                fifo_address_queue
 COMMON         0x0224c338       0x5c c:/devkitPro/libnds/lib\libnds9.a(console.o)
                0x0224c338                currentCopy
 COMMON         0x0224c394      0x148 c:/devkitPro/libnds/lib\libnds9.a(background.o)
                0x0224c394                bgState
                0x0224c4d4                bgIsTextLut
 COMMON         0x0224c4dc       0x40 c:/devkitPro/libnds/lib\libdswifi9.a(sgIP_Hub.o)
                0x0224c4dc                ProtocolInterfaces
                0x0224c4e4                NumHWInterfaces
                0x0224c4e8                HWInterfaces
                0x0224c518                NumProtocolInterfaces
 COMMON         0x0224c51c      0x100 c:/devkitPro/libnds/lib\libdswifi9.a(sgIP_sockets.o)
                0x0224c51c                socketlist
 COMMON         0x0224c61c     0x9fac c:/devkitPro/libnds/lib\libdswifi9.a(wifi_arm9.o)
                0x0224c61c                Wifi_Data_Struct
                0x02256560                wifi_hw
                0x02256564                wHeapsize
                0x02256568                wHeapFirst
                0x0225656c                wifi_connect_point
                0x022565c4                wHeapStart
 COMMON         0x022565c8       0x10 c:/devkitPro/libnds/lib\libdswifi9.a(sgIP.o)
                0x022565c8                count_100ms
                0x022565cc                count_1000ms
                0x022565d0                sgIP_timems
                0x022565d4                sgIP_errno
 COMMON         0x022565d8      0x400 c:/devkitPro/libnds/lib\libdswifi9.a(sgIP_ARP.o)
                0x022565d8                ArpRecords
 COMMON         0x022569d8       0x84 c:/devkitPro/libnds/lib\libdswifi9.a(sgIP_DHCP.o)
                0x022569d8                dhcp_rcvd_dns
                0x022569e4                dhcp_rcvd_snmask
                0x022569e8                dhcp_state
                0x022569ec                dhcp_p
                0x022569f0                dhcp_optionptr
                0x022569f4                dhcp_int
                0x022569f8                dhcp_rcvd_ip
                0x022569fc                dhcp_hostname
                0x02256a3c                dhcp_serverip
                0x02256a40                dhcp_tid
                0x02256a44                dhcp_requestDNS
                0x02256a48                dhcp_socket
                0x02256a4c                dhcp_timestart
                0x02256a50                dhcp_status
                0x02256a54                dhcp_rcvd_gateway
                0x02256a58                dhcp_timelastaction
 COMMON         0x02256a5c     0x5cb4 c:/devkitPro/libnds/lib\libdswifi9.a(sgIP_DNS.o)
                0x02256a5c                dnsrecord_return
                0x02256f80                time_count
                0x02256f84                alias_list
                0x02256f98                querydata
                0x02257198                responsedata
                0x02257398                dnsrecords
                0x0225c5d8                ipaddr_ip
                0x0225c5dc                query_time_start
                0x0225c5e0                addr_list
                0x0225c5f4                ipaddr_alias
                0x0225c6f4                dns_sock
                0x0225c6f8                last_id
                0x0225c6fc                dnsrecord_hostent
 COMMON         0x0225c710        0x4 c:/devkitPro/libnds/lib\libdswifi9.a(sgIP_IP.o)
                0x0225c710                idnum_count
 COMMON         0x0225c714      0x810 c:/devkitPro/libnds/lib\libdswifi9.a(sgIP_TCP.o)
                0x0225c714                tcprecords
                0x0225c718                lasttime
                0x0225c71c                port_counter
                0x0225c720                numsynlist
                0x0225c724                synlist
 COMMON         0x0225cf24        0x8 c:/devkitPro/libnds/lib\libdswifi9.a(sgIP_UDP.o)
                0x0225cf24                udpport_counter
                0x0225cf28                udprecords
 COMMON         0x0225cf2c        0x4 c:/devkitpro/devkitarm/bin/../lib/gcc/arm-eabi/4.4.3/../../../../arm-eabi/lib/thumb\libsysbase.a(times.o)
                0x0225cf2c                punixTime
                0x0225cf30                . = ALIGN (0x4)
                0x0225cf30                __bss_end = ABSOLUTE (.)
                0x0225cf30                __bss_end__ = __bss_end
                0x0225cf30                _end = __bss_end__
                0x0225cf30                __end__ = __bss_end__

.stab
 *(.stab)

.stabstr
 *(.stabstr)

.stab.excl
 *(.stab.excl)

.stab.exclstr
 *(.stab.exclstr)

.stab.index
 *(.stab.index)

.stab.indexstr
 *(.stab.indexstr)

.ARM.attributes
                0x00000000       0x2d load address 0x02232870
 .ARM.attributes
                0x00000000       0x21 c:/devkitpro/devkitarm/bin/../lib/gcc/arm-eabi/4.4.3/../../../../arm-eabi/lib/thumb/ds_arm9_crt0.o
 .ARM.attributes
                0x00000021       0x20 c:/devkitpro/devkitarm/bin/../lib/gcc/arm-eabi/4.4.3/thumb/crti.o
 .ARM.attributes
                0x00000041       0x30 c:/devkitpro/devkitarm/bin/../lib/gcc/arm-eabi/4.4.3/thumb/crtbegin.o
 .ARM.attributes
                0x00000071       0x14 BG2_bas_alg_Map.o
 .ARM.attributes
                0x00000085       0x14 BG2_bas_alg_Pal.o
 .ARM.attributes
                0x00000099       0x14 BG2_bas_alg_Tiles.o
 .ARM.attributes
                0x000000ad       0x14 BG2_bas_amazonia_Map.o
 .ARM.attributes
                0x000000c1       0x14 BG2_bas_amazonia_Pal.o
 .ARM.attributes
                0x000000d5       0x14 BG2_bas_amazonia_Tiles.o
 .ARM.attributes
                0x000000e9       0x14 BG2_bas_arg_Map.o
 .ARM.attributes
                0x000000fd       0x14 BG2_bas_arg_Pal.o
 .ARM.attributes
                0x00000111       0x14 BG2_bas_arg_Tiles.o
 .ARM.attributes
                0x00000125       0x14 BG2_bas_aus_Map.o
 .ARM.attributes
                0x00000139       0x14 BG2_bas_aus_Pal.o
 .ARM.attributes
                0x0000014d       0x14 BG2_bas_aus_Tiles.o
 .ARM.attributes
                0x00000161       0x14 BG2_bas_baixada_Map.o
 .ARM.attributes
                0x00000175       0x14 BG2_bas_baixada_Pal.o
 .ARM.attributes
                0x00000189       0x14 BG2_bas_baixada_Tiles.o
 .ARM.attributes
                0x0000019d       0x14 BG2_bas_beirario_Map.o
 .ARM.attributes
                0x000001b1       0x14 BG2_bas_beirario_Pal.o
 .ARM.attributes
                0x000001c5       0x14 BG2_bas_beirario_Tiles.o
 .ARM.attributes
                0x000001d9       0x14 BG2_bas_bel_Map.o
 .ARM.attributes
                0x000001ed       0x14 BG2_bas_bel_Pal.o
 .ARM.attributes
                0x00000201       0x14 BG2_bas_bel_Tiles.o
 .ARM.attributes
                0x00000215       0x14 BG2_bas_bih_Map.o
 .ARM.attributes
                0x00000229       0x14 BG2_bas_bih_Pal.o
 .ARM.attributes
                0x0000023d       0x14 BG2_bas_bih_Tiles.o
 .ARM.attributes
                0x00000251       0x14 BG2_bas_bra_Map.o
 .ARM.attributes
                0x00000265       0x14 BG2_bas_bra_Pal.o
 .ARM.attributes
                0x00000279       0x14 BG2_bas_bra_Tiles.o
 .ARM.attributes
                0x0000028d       0x14 BG2_bas_castelao_Map.o
 .ARM.attributes
                0x000002a1       0x14 BG2_bas_castelao_Pal.o
 .ARM.attributes
                0x000002b5       0x14 BG2_bas_castelao_Tiles.o
 .ARM.attributes
                0x000002c9       0x14 BG2_bas_chi_Map.o
 .ARM.attributes
                0x000002dd       0x14 BG2_bas_chi_Pal.o
 .ARM.attributes
                0x000002f1       0x14 BG2_bas_chi_Tiles.o
 .ARM.attributes
                0x00000305       0x14 BG2_bas_civ_Map.o
 .ARM.attributes
                0x00000319       0x14 BG2_bas_civ_Pal.o
 .ARM.attributes
                0x0000032d       0x14 BG2_bas_civ_Tiles.o
 .ARM.attributes
                0x00000341       0x14 BG2_bas_cmr_Map.o
 .ARM.attributes
                0x00000355       0x14 BG2_bas_cmr_Pal.o
 .ARM.attributes
                0x00000369       0x14 BG2_bas_cmr_Tiles.o
 .ARM.attributes
                0x0000037d       0x14 BG2_bas_col_Map.o
 .ARM.attributes
                0x00000391       0x14 BG2_bas_col_Pal.o
 .ARM.attributes
                0x000003a5       0x14 BG2_bas_col_Tiles.o
 .ARM.attributes
                0x000003b9       0x14 BG2_bas_crc_Map.o
 .ARM.attributes
                0x000003cd       0x14 BG2_bas_crc_Pal.o
 .ARM.attributes
                0x000003e1       0x14 BG2_bas_crc_Tiles.o
 .ARM.attributes
                0x000003f5       0x14 BG2_bas_cro_Map.o
 .ARM.attributes
                0x00000409       0x14 BG2_bas_cro_Pal.o
 .ARM.attributes
                0x0000041d       0x14 BG2_bas_cro_Tiles.o
 .ARM.attributes
                0x00000431       0x14 BG2_bas_dasdunas_Map.o
 .ARM.attributes
                0x00000445       0x14 BG2_bas_dasdunas_Pal.o
 .ARM.attributes
                0x00000459       0x14 BG2_bas_dasdunas_Tiles.o
 .ARM.attributes
                0x0000046d       0x14 BG2_bas_ecu_Map.o
 .ARM.attributes
                0x00000481       0x14 BG2_bas_ecu_Pal.o
 .ARM.attributes
                0x00000495       0x14 BG2_bas_ecu_Tiles.o
 .ARM.attributes
                0x000004a9       0x14 BG2_bas_eng_Map.o
 .ARM.attributes
                0x000004bd       0x14 BG2_bas_eng_Pal.o
 .ARM.attributes
                0x000004d1       0x14 BG2_bas_eng_Tiles.o
 .ARM.attributes
                0x000004e5       0x14 BG2_bas_esp_Map.o
 .ARM.attributes
                0x000004f9       0x14 BG2_bas_esp_Pal.o
 .ARM.attributes
                0x0000050d       0x14 BG2_bas_esp_Tiles.o
 .ARM.attributes
                0x00000521       0x14 BG2_bas_fontenova_Map.o
 .ARM.attributes
                0x00000535       0x14 BG2_bas_fontenova_Pal.o
 .ARM.attributes
                0x00000549       0x14 BG2_bas_fontenova_Tiles.o
 .ARM.attributes
                0x0000055d       0x14 BG2_bas_fra_Map.o
 .ARM.attributes
                0x00000571       0x14 BG2_bas_fra_Pal.o
 .ARM.attributes
                0x00000585       0x14 BG2_bas_fra_Tiles.o
 .ARM.attributes
                0x00000599       0x14 BG2_bas_ger_Map.o
 .ARM.attributes
                0x000005ad       0x14 BG2_bas_ger_Pal.o
 .ARM.attributes
                0x000005c1       0x14 BG2_bas_ger_Tiles.o
 .ARM.attributes
                0x000005d5       0x14 BG2_bas_gha_Map.o
 .ARM.attributes
                0x000005e9       0x14 BG2_bas_gha_Pal.o
 .ARM.attributes
                0x000005fd       0x14 BG2_bas_gha_Tiles.o
 .ARM.attributes
                0x00000611       0x14 BG2_bas_gre_Map.o
 .ARM.attributes
                0x00000625       0x14 BG2_bas_gre_Pal.o
 .ARM.attributes
                0x00000639       0x14 BG2_bas_gre_Tiles.o
 .ARM.attributes
                0x0000064d       0x14 BG2_bas_hon_Map.o
 .ARM.attributes
                0x00000661       0x14 BG2_bas_hon_Pal.o
 .ARM.attributes
                0x00000675       0x14 BG2_bas_hon_Tiles.o
 .ARM.attributes
                0x00000689       0x14 BG2_bas_irn_Map.o
 .ARM.attributes
                0x0000069d       0x14 BG2_bas_irn_Pal.o
 .ARM.attributes
                0x000006b1       0x14 BG2_bas_irn_Tiles.o
 .ARM.attributes
                0x000006c5       0x14 BG2_bas_ita_Map.o
 .ARM.attributes
                0x000006d9       0x14 BG2_bas_ita_Pal.o
 .ARM.attributes
                0x000006ed       0x14 BG2_bas_ita_Tiles.o
 .ARM.attributes
                0x00000701       0x14 BG2_bas_jpn_Map.o
 .ARM.attributes
                0x00000715       0x14 BG2_bas_jpn_Pal.o
 .ARM.attributes
                0x00000729       0x14 BG2_bas_jpn_Tiles.o
 .ARM.attributes
                0x0000073d       0x14 BG2_bas_kor_Map.o
 .ARM.attributes
                0x00000751       0x14 BG2_bas_kor_Pal.o
 .ARM.attributes
                0x00000765       0x14 BG2_bas_kor_Tiles.o
 .ARM.attributes
                0x00000779       0x14 BG2_bas_maracana_Map.o
 .ARM.attributes
                0x0000078d       0x14 BG2_bas_maracana_Pal.o
 .ARM.attributes
                0x000007a1       0x14 BG2_bas_maracana_Tiles.o
 .ARM.attributes
                0x000007b5       0x14 BG2_bas_mex_Map.o
 .ARM.attributes
                0x000007c9       0x14 BG2_bas_mex_Pal.o
 .ARM.attributes
                0x000007dd       0x14 BG2_bas_mex_Tiles.o
 .ARM.attributes
                0x000007f1       0x14 BG2_bas_mineirao_Map.o
 .ARM.attributes
                0x00000805       0x14 BG2_bas_mineirao_Pal.o
 .ARM.attributes
                0x00000819       0x14 BG2_bas_mineirao_Tiles.o
 .ARM.attributes
                0x0000082d       0x14 BG2_bas_nacional_Map.o
 .ARM.attributes
                0x00000841       0x14 BG2_bas_nacional_Pal.o
 .ARM.attributes
                0x00000855       0x14 BG2_bas_nacional_Tiles.o
 .ARM.attributes
                0x00000869       0x14 BG2_bas_ned_Map.o
 .ARM.attributes
                0x0000087d       0x14 BG2_bas_ned_Pal.o
 .ARM.attributes
                0x00000891       0x14 BG2_bas_ned_Tiles.o
 .ARM.attributes
                0x000008a5       0x14 BG2_bas_nga_Map.o
 .ARM.attributes
                0x000008b9       0x14 BG2_bas_nga_Pal.o
 .ARM.attributes
                0x000008cd       0x14 BG2_bas_nga_Tiles.o
 .ARM.attributes
                0x000008e1       0x14 BG2_bas_pantanal_Map.o
 .ARM.attributes
                0x000008f5       0x14 BG2_bas_pantanal_Pal.o
 .ARM.attributes
                0x00000909       0x14 BG2_bas_pantanal_Tiles.o
 .ARM.attributes
                0x0000091d       0x14 BG2_bas_pernambuco_Map.o
 .ARM.attributes
                0x00000931       0x14 BG2_bas_pernambuco_Pal.o
 .ARM.attributes
                0x00000945       0x14 BG2_bas_pernambuco_Tiles.o
 .ARM.attributes
                0x00000959       0x14 BG2_bas_por_Map.o
 .ARM.attributes
                0x0000096d       0x14 BG2_bas_por_Pal.o
 .ARM.attributes
                0x00000981       0x14 BG2_bas_por_Tiles.o
 .ARM.attributes
                0x00000995       0x14 BG2_bas_rus_Map.o
 .ARM.attributes
                0x000009a9       0x14 BG2_bas_rus_Pal.o
 .ARM.attributes
                0x000009bd       0x14 BG2_bas_rus_Tiles.o
 .ARM.attributes
                0x000009d1       0x14 BG2_bas_saopaulo_Map.o
 .ARM.attributes
                0x000009e5       0x14 BG2_bas_saopaulo_Pal.o
 .ARM.attributes
                0x000009f9       0x14 BG2_bas_saopaulo_Tiles.o
 .ARM.attributes
                0x00000a0d       0x14 BG2_bas_selection_Map.o
 .ARM.attributes
                0x00000a21       0x14 BG2_bas_selection_Pal.o
 .ARM.attributes
                0x00000a35       0x14 BG2_bas_selection_Tiles.o
 .ARM.attributes
                0x00000a49       0x14 BG2_bas_sui_Map.o
 .ARM.attributes
                0x00000a5d       0x14 BG2_bas_sui_Pal.o
 .ARM.attributes
                0x00000a71       0x14 BG2_bas_sui_Tiles.o
 .ARM.attributes
                0x00000a85       0x14 BG2_bas_uru_Map.o
 .ARM.attributes
                0x00000a99       0x14 BG2_bas_uru_Pal.o
 .ARM.attributes
                0x00000aad       0x14 BG2_bas_uru_Tiles.o
 .ARM.attributes
                0x00000ac1       0x14 BG2_bas_usa_Map.o
 .ARM.attributes
                0x00000ad5       0x14 BG2_bas_usa_Pal.o
 .ARM.attributes
                0x00000ae9       0x14 BG2_bas_usa_Tiles.o
 .ARM.attributes
                0x00000afd       0x14 Groupe_Lettres_Pal.o
 .ARM.attributes
                0x00000b11       0x14 Groupe_Lettres_Sprite.o
 .ARM.attributes
                0x00000b25       0x14 Signe_Pal.o
 .ARM.attributes
                0x00000b39       0x14 Signe_Sprite.o
 .ARM.attributes
                0x00000b4d       0x14 ballon_Pal.o
 .ARM.attributes
                0x00000b61       0x14 ballon_Sprite.o
 .ARM.attributes
                0x00000b75       0x14 flags_64_Pal.o
 .ARM.attributes
                0x00000b89       0x14 flags_64_Sprite.o
 .ARM.attributes
                0x00000b9d       0x14 flags_Pal.o
 .ARM.attributes
                0x00000bb1       0x14 flags_Sprite.o
 .ARM.attributes
                0x00000bc5       0x14 icones_Pal.o
 .ARM.attributes
                0x00000bd9       0x14 icones_Sprite.o
 .ARM.attributes
                0x00000bed       0x14 newfont_Map.o
 .ARM.attributes
                0x00000c01       0x14 newfont_Pal.o
 .ARM.attributes
                0x00000c15       0x14 newfont_Tiles.o
 .ARM.attributes
                0x00000c29       0x14 nombres_32_Pal.o
 .ARM.attributes
                0x00000c3d       0x14 nombres_32_Sprite.o
 .ARM.attributes
                0x00000c51       0x14 nombres_Pal.o
 .ARM.attributes
                0x00000c65       0x14 nombres_Sprite.o
 .ARM.attributes
                0x00000c79       0x14 quitter_Pal.o
 .ARM.attributes
                0x00000c8d       0x14 quitter_Sprite.o
 .ARM.attributes
                0x00000ca1       0x14 soundbank_bin.o
 .ARM.attributes
                0x00000cb5       0x14 BG3_bas_connexion_eng.o
 .ARM.attributes
                0x00000cc9       0x14 BG3_bas_connexion_esp.o
 .ARM.attributes
                0x00000cdd       0x14 BG3_bas_connexion_fra.o
 .ARM.attributes
                0x00000cf1       0x14 BG3_bas_connexion_ger.o
 .ARM.attributes
                0x00000d05       0x14 BG3_bas_connexion_ita.o
 .ARM.attributes
                0x00000d19       0x14 BG3_bas_deux.o
 .ARM.attributes
                0x00000d2d       0x14 BG3_bas_echec_eng.o
 .ARM.attributes
                0x00000d41       0x14 BG3_bas_echec_esp.o
 .ARM.attributes
                0x00000d55       0x14 BG3_bas_echec_fra.o
 .ARM.attributes
                0x00000d69       0x14 BG3_bas_echec_ger.o
 .ARM.attributes
                0x00000d7d       0x14 BG3_bas_echec_ita.o
 .ARM.attributes
                0x00000d91       0x14 BG3_bas_equipes_eng.o
 .ARM.attributes
                0x00000da5       0x14 BG3_bas_equipes_esp.o
 .ARM.attributes
                0x00000db9       0x14 BG3_bas_equipes_fra.o
 .ARM.attributes
                0x00000dcd       0x14 BG3_bas_equipes_ger.o
 .ARM.attributes
                0x00000de1       0x14 BG3_bas_equipes_ita.o
 .ARM.attributes
                0x00000df5       0x14 BG3_bas_groupes.o
 .ARM.attributes
                0x00000e09       0x14 BG3_bas_menu_eng.o
 .ARM.attributes
                0x00000e1d       0x14 BG3_bas_menu_esp.o
 .ARM.attributes
                0x00000e31       0x14 BG3_bas_menu_fra.o
 .ARM.attributes
                0x00000e45       0x14 BG3_bas_menu_ger.o
 .ARM.attributes
                0x00000e59       0x14 BG3_bas_menu_ita.o
 .ARM.attributes
                0x00000e6d       0x14 BG3_bas_penalty.o
 .ARM.attributes
                0x00000e81       0x14 BG3_bas_quatres.o
 .ARM.attributes
                0x00000e95       0x14 BG3_bas_reussi_eng.o
 .ARM.attributes
                0x00000ea9       0x14 BG3_bas_reussi_esp.o
 .ARM.attributes
                0x00000ebd       0x14 BG3_bas_reussi_fra.o
 .ARM.attributes
                0x00000ed1       0x14 BG3_bas_reussi_ger.o
 .ARM.attributes
                0x00000ee5       0x14 BG3_bas_reussi_ita.o
 .ARM.attributes
                0x00000ef9       0x14 BG3_bas_score.o
 .ARM.attributes
                0x00000f0d       0x14 BG3_bas_stades_eng.o
 .ARM.attributes
                0x00000f21       0x14 BG3_bas_stades_esp.o
 .ARM.attributes
                0x00000f35       0x14 BG3_bas_stades_fra.o
 .ARM.attributes
                0x00000f49       0x14 BG3_bas_stades_ger.o
 .ARM.attributes
                0x00000f5d       0x14 BG3_bas_stades_ita.o
 .ARM.attributes
                0x00000f71       0x14 BG3_bas_wifi_eng.o
 .ARM.attributes
                0x00000f85       0x14 BG3_bas_wifi_esp.o
 .ARM.attributes
                0x00000f99       0x14 BG3_bas_wifi_fra.o
 .ARM.attributes
                0x00000fad       0x14 BG3_bas_wifi_ger.o
 .ARM.attributes
                0x00000fc1       0x14 BG3_bas_wifi_ita.o
 .ARM.attributes
                0x00000fd5       0x14 BG3_haut_demi_eng.o
 .ARM.attributes
                0x00000fe9       0x14 BG3_haut_demi_esp.o
 .ARM.attributes
                0x00000ffd       0x14 BG3_haut_demi_fra.o
 .ARM.attributes
                0x00001011       0x14 BG3_haut_demi_ger.o
 .ARM.attributes
                0x00001025       0x14 BG3_haut_demi_ita.o
 .ARM.attributes
                0x00001039       0x14 BG3_haut_finale_eng.o
 .ARM.attributes
                0x0000104d       0x14 BG3_haut_finale_esp.o
 .ARM.attributes
                0x00001061       0x14 BG3_haut_finale_fra.o
 .ARM.attributes
                0x00001075       0x14 BG3_haut_finale_ger.o
 .ARM.attributes
                0x00001089       0x14 BG3_haut_finale_ita.o
 .ARM.attributes
                0x0000109d       0x14 BG3_haut_groupes_eng.o
 .ARM.attributes
                0x000010b1       0x14 BG3_haut_groupes_esp.o
 .ARM.attributes
                0x000010c5       0x14 BG3_haut_groupes_fra.o
 .ARM.attributes
                0x000010d9       0x14 BG3_haut_groupes_ger.o
 .ARM.attributes
                0x000010ed       0x14 BG3_haut_groupes_ita.o
 .ARM.attributes
                0x00001101       0x14 BG3_haut_huitieme_eng.o
 .ARM.attributes
                0x00001115       0x14 BG3_haut_huitieme_esp.o
 .ARM.attributes
                0x00001129       0x14 BG3_haut_huitieme_fra.o
 .ARM.attributes
                0x0000113d       0x14 BG3_haut_huitieme_ger.o
 .ARM.attributes
                0x00001151       0x14 BG3_haut_huitieme_ita.o
 .ARM.attributes
                0x00001165       0x14 BG3_haut_quart_eng.o
 .ARM.attributes
                0x00001179       0x14 BG3_haut_quart_esp.o
 .ARM.attributes
                0x0000118d       0x14 BG3_haut_quart_fra.o
 .ARM.attributes
                0x000011a1       0x14 BG3_haut_quart_ger.o
 .ARM.attributes
                0x000011b5       0x14 BG3_haut_quart_ita.o
 .ARM.attributes
                0x000011c9       0x14 BG3_haut_titre.o
 .ARM.attributes
                0x000011dd       0x14 amazonia.o
 .ARM.attributes
                0x000011f1       0x14 baixada.o
 .ARM.attributes
                0x00001205       0x14 beirario.o
 .ARM.attributes
                0x00001219       0x14 black.o
 .ARM.attributes
                0x0000122d       0x14 castelao.o
 .ARM.attributes
                0x00001241       0x14 credits.o
 .ARM.attributes
                0x00001255       0x14 devkitpro.o
 .ARM.attributes
                0x00001269       0x14 dunas.o
 .ARM.attributes
                0x0000127d       0x14 fontenova.o
 .ARM.attributes
                0x00001291       0x14 intro1.o
 .ARM.attributes
                0x000012a5       0x14 intro2.o
 .ARM.attributes
                0x000012b9       0x14 intro3.o
 .ARM.attributes
                0x000012cd       0x14 licensed.o
 .ARM.attributes
                0x000012e1       0x14 maracana.o
 .ARM.attributes
                0x000012f5       0x14 mineirao.o
 .ARM.attributes
                0x00001309       0x14 nacional.o
 .ARM.attributes
                0x0000131d       0x14 palib.o
 .ARM.attributes
                0x00001331       0x14 pantanal.o
 .ARM.attributes
                0x00001345       0x14 pernambuco.o
 .ARM.attributes
                0x00001359       0x14 saopaulo.o
 .ARM.attributes
                0x0000136d       0x27 ky_geturl.o
 .ARM.attributes
                0x00001394       0x27 main.o
 .ARM.attributes
                0x000013bb       0x27 BG2_bas_alg.o
 .ARM.attributes
                0x000013e2       0x27 BG2_bas_amazonia.o
 .ARM.attributes
                0x00001409       0x27 BG2_bas_arg.o
 .ARM.attributes
                0x00001430       0x27 BG2_bas_aus.o
 .ARM.attributes
                0x00001457       0x27 BG2_bas_baixada.o
 .ARM.attributes
                0x0000147e       0x27 BG2_bas_beirario.o
 .ARM.attributes
                0x000014a5       0x27 BG2_bas_bel.o
 .ARM.attributes
                0x000014cc       0x27 BG2_bas_bih.o
 .ARM.attributes
                0x000014f3       0x27 BG2_bas_bra.o
 .ARM.attributes
                0x0000151a       0x27 BG2_bas_castelao.o
 .ARM.attributes
                0x00001541       0x27 BG2_bas_chi.o
 .ARM.attributes
                0x00001568       0x27 BG2_bas_civ.o
 .ARM.attributes
                0x0000158f       0x27 BG2_bas_cmr.o
 .ARM.attributes
                0x000015b6       0x27 BG2_bas_col.o
 .ARM.attributes
                0x000015dd       0x27 BG2_bas_crc.o
 .ARM.attributes
                0x00001604       0x27 BG2_bas_cro.o
 .ARM.attributes
                0x0000162b       0x27 BG2_bas_dasdunas.o
 .ARM.attributes
                0x00001652       0x27 BG2_bas_ecu.o
 .ARM.attributes
                0x00001679       0x27 BG2_bas_eng.o
 .ARM.attributes
                0x000016a0       0x27 BG2_bas_esp.o
 .ARM.attributes
                0x000016c7       0x27 BG2_bas_fontenova.o
 .ARM.attributes
                0x000016ee       0x27 BG2_bas_fra.o
 .ARM.attributes
                0x00001715       0x27 BG2_bas_ger.o
 .ARM.attributes
                0x0000173c       0x27 BG2_bas_gha.o
 .ARM.attributes
                0x00001763       0x27 BG2_bas_gre.o
 .ARM.attributes
                0x0000178a       0x27 BG2_bas_hon.o
 .ARM.attributes
                0x000017b1       0x27 BG2_bas_irn.o
 .ARM.attributes
                0x000017d8       0x27 BG2_bas_ita.o
 .ARM.attributes
                0x000017ff       0x27 BG2_bas_jpn.o
 .ARM.attributes
                0x00001826       0x27 BG2_bas_kor.o
 .ARM.attributes
                0x0000184d       0x27 BG2_bas_maracana.o
 .ARM.attributes
                0x00001874       0x27 BG2_bas_mex.o
 .ARM.attributes
                0x0000189b       0x27 BG2_bas_mineirao.o
 .ARM.attributes
                0x000018c2       0x27 BG2_bas_nacional.o
 .ARM.attributes
                0x000018e9       0x27 BG2_bas_ned.o
 .ARM.attributes
                0x00001910       0x27 BG2_bas_nga.o
 .ARM.attributes
                0x00001937       0x27 BG2_bas_pantanal.o
 .ARM.attributes
                0x0000195e       0x27 BG2_bas_pernambuco.o
 .ARM.attributes
                0x00001985       0x27 BG2_bas_por.o
 .ARM.attributes
                0x000019ac       0x27 BG2_bas_rus.o
 .ARM.attributes
                0x000019d3       0x27 BG2_bas_saopaulo.o
 .ARM.attributes
                0x000019fa       0x27 BG2_bas_selection.o
 .ARM.attributes
                0x00001a21       0x27 BG2_bas_sui.o
 .ARM.attributes
                0x00001a48       0x27 BG2_bas_uru.o
 .ARM.attributes
                0x00001a6f       0x27 BG2_bas_usa.o
 .ARM.attributes
                0x00001a96       0x27 newfont.o
 .ARM.attributes
                0x00001abd       0x27 c:/devkitPro/PAlib/lib\libpa9.a(PA_BgTiles.o)
 .ARM.attributes
                0x00001ae4       0x27 c:/devkitPro/PAlib/lib\libpa9.a(PA.o)
 .ARM.attributes
                0x00001b0b       0x27 c:/devkitPro/PAlib/lib\libpa9.a(PA_Draw8bit.o)
 .ARM.attributes
                0x00001b32       0x27 c:/devkitPro/PAlib/lib\libpa9.a(PA_Draw.o)
 .ARM.attributes
                0x00001b59       0x27 c:/devkitPro/PAlib/lib\libpa9.a(PA_Error.o)
 .ARM.attributes
                0x00001b80       0x27 c:/devkitPro/PAlib/lib\libpa9.a(PA_Gif.o)
 .ARM.attributes
                0x00001ba7       0x27 c:/devkitPro/PAlib/lib\libpa9.a(PA_Inits.o)
 .ARM.attributes
                0x00001bce       0x27 c:/devkitPro/PAlib/lib\libpa9.a(PA_Interrupt.o)
 .ARM.attributes
                0x00001bf5       0x27 c:/devkitPro/PAlib/lib\libpa9.a(PA_Keys.o)
 .ARM.attributes
                0x00001c1c       0x27 c:/devkitPro/PAlib/lib\libpa9.a(PA_Math.o)
 .ARM.attributes
                0x00001c43       0x27 c:/devkitPro/PAlib/lib\libpa9.a(PA_NewBg.o)
 .ARM.attributes
                0x00001c6a       0x27 c:/devkitPro/PAlib/lib\libpa9.a(PA_Palette.o)
 .ARM.attributes
                0x00001c91       0x27 c:/devkitPro/PAlib/lib\libpa9.a(PA_Reco.o)
 .ARM.attributes
                0x00001cb8       0x27 c:/devkitPro/PAlib/lib\libpa9.a(PA_RTC.o)
 .ARM.attributes
                0x00001cdf       0x27 c:/devkitPro/PAlib/lib\libpa9.a(PA_SpriteAnim.o)
 .ARM.attributes
                0x00001d06       0x27 c:/devkitPro/PAlib/lib\libpa9.a(PA_Sprite.o)
 .ARM.attributes
                0x00001d2d       0x27 c:/devkitPro/PAlib/lib\libpa9.a(PA_Stuff.o)
 .ARM.attributes
                0x00001d54       0x27 c:/devkitPro/PAlib/lib\libpa9.a(PA_Text8bit.o)
 .ARM.attributes
                0x00001d7b       0x27 c:/devkitPro/PAlib/lib\libpa9.a(PA_TextBits.o)
 .ARM.attributes
                0x00001da2       0x27 c:/devkitPro/PAlib/lib\libpa9.a(PA_Text.o)
 .ARM.attributes
                0x00001dc9       0x27 c:/devkitPro/PAlib/lib\libpa9.a(dgif_lib.o)
 .ARM.attributes
                0x00001df0       0x27 c:/devkitPro/PAlib/lib\libpa9.a(gifalloc.o)
 .ARM.attributes
                0x00001e17       0x27 c:/devkitPro/PAlib/lib\libpa9.a(gif_err.o)
 .ARM.attributes
                0x00001e3e       0x27 c:/devkitPro/PAlib/lib\libpa9.a(PA_TiledFont.o)
 .ARM.attributes
                0x00001e65       0x27 c:/devkitPro/PAlib/lib\libpa9.a(PA_BmpFont0.o)
 .ARM.attributes
                0x00001e8c       0x27 c:/devkitPro/PAlib/lib\libpa9.a(PA_BmpFont1.o)
 .ARM.attributes
                0x00001eb3       0x27 c:/devkitPro/PAlib/lib\libpa9.a(PA_BmpFont2.o)
 .ARM.attributes
                0x00001eda       0x27 c:/devkitPro/PAlib/lib\libpa9.a(PA_BmpFont3.o)
 .ARM.attributes
                0x00001f01       0x27 c:/devkitPro/PAlib/lib\libpa9.a(PA_BmpFont4.o)
 .ARM.attributes
                0x00001f28       0x14 c:/devkitPro/PAlib/lib\libpa9.a(PA_TiledFont_Map.bin.o)
 .ARM.attributes
                0x00001f3c       0x14 c:/devkitPro/PAlib/lib\libpa9.a(PA_TiledFont_Pal.bin.o)
 .ARM.attributes
                0x00001f50       0x14 c:/devkitPro/PAlib/lib\libpa9.a(PA_TiledFont_Tiles.bin.o)
 .ARM.attributes
                0x00001f64       0x14 c:/devkitPro/PAlib/lib\libpa9.a(PA_BmpFont0_Map.bin.o)
 .ARM.attributes
                0x00001f78       0x14 c:/devkitPro/PAlib/lib\libpa9.a(PA_BmpFont0_Sizes.bin.o)
 .ARM.attributes
                0x00001f8c       0x14 c:/devkitPro/PAlib/lib\libpa9.a(PA_BmpFont0_Tiles.bin.o)
 .ARM.attributes
                0x00001fa0       0x14 c:/devkitPro/PAlib/lib\libpa9.a(PA_BmpFont1_Map.bin.o)
 .ARM.attributes
                0x00001fb4       0x14 c:/devkitPro/PAlib/lib\libpa9.a(PA_BmpFont1_Sizes.bin.o)
 .ARM.attributes
                0x00001fc8       0x14 c:/devkitPro/PAlib/lib\libpa9.a(PA_BmpFont1_Tiles.bin.o)
 .ARM.attributes
                0x00001fdc       0x14 c:/devkitPro/PAlib/lib\libpa9.a(PA_BmpFont2_Map.bin.o)
 .ARM.attributes
                0x00001ff0       0x14 c:/devkitPro/PAlib/lib\libpa9.a(PA_BmpFont2_Sizes.bin.o)
 .ARM.attributes
                0x00002004       0x14 c:/devkitPro/PAlib/lib\libpa9.a(PA_BmpFont2_Tiles.bin.o)
 .ARM.attributes
                0x00002018       0x14 c:/devkitPro/PAlib/lib\libpa9.a(PA_BmpFont3_Map.bin.o)
 .ARM.attributes
                0x0000202c       0x14 c:/devkitPro/PAlib/lib\libpa9.a(PA_BmpFont3_Sizes.bin.o)
 .ARM.attributes
                0x00002040       0x14 c:/devkitPro/PAlib/lib\libpa9.a(PA_BmpFont3_Tiles.bin.o)
 .ARM.attributes
                0x00002054       0x14 c:/devkitPro/PAlib/lib\libpa9.a(PA_BmpFont4_Map.bin.o)
 .ARM.attributes
                0x00002068       0x14 c:/devkitPro/PAlib/lib\libpa9.a(PA_BmpFont4_Sizes.bin.o)
 .ARM.attributes
                0x0000207c       0x14 c:/devkitPro/PAlib/lib\libpa9.a(PA_BmpFont4_Tiles.bin.o)
 .ARM.attributes
                0x00002090       0x27 c:/devkitPro/PAlib/lib\libpa9.a(PA_16c.o)
 .ARM.attributes
                0x000020b7       0x27 c:/devkitPro/PAlib/lib\libpa9.a(PA_BgEasy.o)
 .ARM.attributes
                0x000020de       0x27 c:/devkitPro/PAlib/lib\libpa9.a(PA_BgLargeMap.o)
 .ARM.attributes
                0x00002105       0x27 c:/devkitPro/PAlib/lib\libpa9.a(PA_BgRot.o)
 .ARM.attributes
                0x0000212c       0x27 c:/devkitPro/PAlib/lib\libpa9.a(PA_Fifo.o)
 .ARM.attributes
                0x00002153       0x27 c:/devkitPro/PAlib/lib\libpa9.a(PA_Keyboard.o)
 .ARM.attributes
                0x0000217a       0x27 c:/devkitPro/PAlib/lib\libpa9.a(PA_PaletteEx.o)
 .ARM.attributes
                0x000021a1       0x27 c:/devkitPro/PAlib/lib\libpa9.a(keyboard.map.o)
 .ARM.attributes
                0x000021c8       0x27 c:/devkitPro/PAlib/lib\libpa9.a(keyboard.pal.o)
 .ARM.attributes
                0x000021ef       0x27 c:/devkitPro/PAlib/lib\libpa9.a(keyboard.raw.o)
 .ARM.attributes
                0x00002216       0x27 c:/devkitPro/libnds/lib\libfat.a(libfat.o)
 .ARM.attributes
                0x0000223d       0x27 c:/devkitPro/libnds/lib\libfat.a(partition.o)
 .ARM.attributes
                0x00002264       0x27 c:/devkitPro/libnds/lib\libfat.a(cache.o)
 .ARM.attributes
                0x0000228b       0x27 c:/devkitPro/libnds/lib\libfat.a(directory.o)
 .ARM.attributes
                0x000022b2       0x27 c:/devkitPro/libnds/lib\libfat.a(disc.o)
 .ARM.attributes
                0x000022d9       0x27 c:/devkitPro/libnds/lib\libfat.a(fatdir.o)
 .ARM.attributes
                0x00002300       0x27 c:/devkitPro/libnds/lib\libfat.a(fatfile.o)
 .ARM.attributes
                0x00002327       0x27 c:/devkitPro/libnds/lib\libfat.a(file_allocation_table.o)
 .ARM.attributes
                0x0000234e       0x27 c:/devkitPro/libnds/lib\libfat.a(filetime.o)
 .ARM.attributes
                0x00002375       0x27 c:/devkitPro/libnds/lib\libnds9.a(gurumeditation.o)
 .ARM.attributes
                0x0000239c       0x27 c:/devkitPro/libnds/lib\libnds9.a(keys.o)
 .ARM.attributes
                0x000023c3       0x27 c:/devkitPro/libnds/lib\libnds9.a(system.o)
 .ARM.attributes
                0x000023ea       0x27 c:/devkitPro/libnds/lib\libnds9.a(touch.o)
 .ARM.attributes
                0x00002411       0x27 c:/devkitPro/libnds/lib\libnds9.a(video.o)
 .ARM.attributes
                0x00002438       0x27 c:/devkitPro/libnds/lib\libnds9.a(dldi.o)
 .ARM.attributes
                0x0000245f       0x27 c:/devkitPro/libnds/lib\libnds9.a(initSystem.o)
 .ARM.attributes
                0x00002486       0x27 c:/devkitPro/libnds/lib\libnds9.a(fifosystem.o)
 .ARM.attributes
                0x000024ad       0x27 c:/devkitPro/libnds/lib\libnds9.a(interrupts.o)
 .ARM.attributes
                0x000024d4       0x27 c:/devkitPro/libnds/lib\libnds9.a(libnds_exit.o)
 .ARM.attributes
                0x000024fb       0x1b c:/devkitPro/libnds/lib\libnds9.a(dcache.o)
 .ARM.attributes
                0x00002516       0x1b c:/devkitPro/libnds/lib\libnds9.a(exceptionHandler.o)
 .ARM.attributes
                0x00002531       0x1b c:/devkitPro/libnds/lib\libnds9.a(dldi_stub.o)
 .ARM.attributes
                0x0000254c       0x21 c:/devkitPro/libnds/lib\libnds9.a(mpu_setup.o)
 .ARM.attributes
                0x0000256d       0x1b c:/devkitPro/libnds/lib\libnds9.a(biosCalls.o)
 .ARM.attributes
                0x00002588       0x1b c:/devkitPro/libnds/lib\libnds9.a(interruptDispatcher.o)
 .ARM.attributes
                0x000025a3       0x21 c:/devkitPro/libnds/lib\libnds9.a(swiSoftReset.o)
 .ARM.attributes
                0x000025c4       0x27 c:/devkitPro/libnds/lib\libnds9.a(console.o)
 .ARM.attributes
                0x000025eb       0x27 c:/devkitPro/libnds/lib\libnds9.a(exceptions.o)
 .ARM.attributes
                0x00002612       0x1b c:/devkitPro/libnds/lib\libnds9.a(debugprint.o)
 .ARM.attributes
                0x0000262d       0x14 c:/devkitPro/libnds/lib\libnds9.a(default_font.bin.o)
 .ARM.attributes
                0x00002641       0x27 c:/devkitPro/libnds/lib\libnds9.a(background.o)
 .ARM.attributes
                0x00002668       0x27 c:/devkitPro/libnds/lib\libnds9.a(trig.o)
 .ARM.attributes
                0x0000268f       0x27 c:/devkitPro/libnds/lib\libdswifi9.a(sgIP_Hub.o)
 .ARM.attributes
                0x000026b6       0x27 c:/devkitPro/libnds/lib\libdswifi9.a(sgIP_memblock.o)
 .ARM.attributes
                0x000026dd       0x27 c:/devkitPro/libnds/lib\libdswifi9.a(sgIP_sockets.o)
 .ARM.attributes
                0x00002704       0x27 c:/devkitPro/libnds/lib\libdswifi9.a(wifi_arm9.o)
 .ARM.attributes
                0x0000272b       0x20 c:/devkitPro/libnds/lib\libdswifi9.a(spinlock.o)
 .ARM.attributes
                0x0000274b       0x27 c:/devkitPro/libnds/lib\libdswifi9.a(sgIP.o)
 .ARM.attributes
                0x00002772       0x27 c:/devkitPro/libnds/lib\libdswifi9.a(sgIP_ARP.o)
 .ARM.attributes
                0x00002799       0x27 c:/devkitPro/libnds/lib\libdswifi9.a(sgIP_DHCP.o)
 .ARM.attributes
                0x000027c0       0x27 c:/devkitPro/libnds/lib\libdswifi9.a(sgIP_DNS.o)
 .ARM.attributes
                0x000027e7       0x27 c:/devkitPro/libnds/lib\libdswifi9.a(sgIP_IP.o)
 .ARM.attributes
                0x0000280e       0x27 c:/devkitPro/libnds/lib\libdswifi9.a(sgIP_TCP.o)
 .ARM.attributes
                0x00002835       0x27 c:/devkitPro/libnds/lib\libdswifi9.a(sgIP_UDP.o)
 .ARM.attributes
                0x0000285c       0x27 c:/devkitPro/libnds/lib\libdswifi9.a(sgIP_ICMP.o)
 .ARM.attributes
                0x00002883       0x19 c:/devkitPro/libnds/lib\libmm9.a(mm_comms.o)
 .ARM.attributes
                0x0000289c       0x1b c:/devkitPro/libnds/lib\libmm9.a(mm_main9.o)
 .ARM.attributes
                0x000028b7       0x19 c:/devkitPro/libnds/lib\libmm9.a(mm_memory.o)
 .ARM.attributes
                0x000028d0       0x19 c:/devkitPro/libnds/lib\libmm9.a(mm_soundbank.o)
 .ARM.attributes
                0x000028e9       0x1b c:/devkitPro/libnds/lib\libmm9.a(mm_flusher.o)
 .ARM.attributes
                0x00002904       0x20 c:/devkitpro/devkitarm/bin/../lib/gcc/arm-eabi/4.4.3/thumb\libgcc.a(_udivsi3.o)
 .ARM.attributes
                0x00002924       0x20 c:/devkitpro/devkitarm/bin/../lib/gcc/arm-eabi/4.4.3/thumb\libgcc.a(_divsi3.o)
 .ARM.attributes
                0x00002944       0x20 c:/devkitpro/devkitarm/bin/../lib/gcc/arm-eabi/4.4.3/thumb\libgcc.a(_dvmd_tls.o)
 .ARM.attributes
                0x00002964       0x20 c:/devkitpro/devkitarm/bin/../lib/gcc/arm-eabi/4.4.3/thumb\libgcc.a(_arm_addsubdf3.o)
 .ARM.attributes
                0x00002984       0x20 c:/devkitpro/devkitarm/bin/../lib/gcc/arm-eabi/4.4.3/thumb\libgcc.a(_arm_muldivdf3.o)
 .ARM.attributes
                0x000029a4       0x20 c:/devkitpro/devkitarm/bin/../lib/gcc/arm-eabi/4.4.3/thumb\libgcc.a(_arm_cmpdf2.o)
 .ARM.attributes
                0x000029c4       0x20 c:/devkitpro/devkitarm/bin/../lib/gcc/arm-eabi/4.4.3/thumb\libgcc.a(_arm_fixdfsi.o)
 .ARM.attributes
                0x000029e4       0x20 c:/devkitpro/devkitarm/bin/../lib/gcc/arm-eabi/4.4.3/thumb\libgcc.a(_arm_addsubsf3.o)
 .ARM.attributes
                0x00002a04       0x20 c:/devkitpro/devkitarm/bin/../lib/gcc/arm-eabi/4.4.3/thumb\libgcc.a(_arm_muldivsf3.o)
 .ARM.attributes
                0x00002a24       0x30 c:/devkitpro/devkitarm/bin/../lib/gcc/arm-eabi/4.4.3/thumb\libgcc.a(_muldi3.o)
 .ARM.attributes
                0x00002a54       0x30 c:/devkitpro/devkitarm/bin/../lib/gcc/arm-eabi/4.4.3/../../../../arm-eabi/lib/thumb\libg.a(lib_a-bsearch.o)
 .ARM.attributes
                0x00002a84       0x30 c:/devkitpro/devkitarm/bin/../lib/gcc/arm-eabi/4.4.3/../../../../arm-eabi/lib/thumb\libg.a(lib_a-calloc.o)
 .ARM.attributes
                0x00002ab4       0x30 c:/devkitpro/devkitarm/bin/../lib/gcc/arm-eabi/4.4.3/../../../../arm-eabi/lib/thumb\libg.a(lib_a-callocr.o)
 .ARM.attributes
                0x00002ae4       0x30 c:/devkitpro/devkitarm/bin/../lib/gcc/arm-eabi/4.4.3/../../../../arm-eabi/lib/thumb\libg.a(lib_a-errno.o)
 .ARM.attributes
                0x00002b14       0x30 c:/devkitpro/devkitarm/bin/../lib/gcc/arm-eabi/4.4.3/../../../../arm-eabi/lib/thumb\libg.a(lib_a-fclose.o)
 .ARM.attributes
                0x00002b44       0x30 c:/devkitpro/devkitarm/bin/../lib/gcc/arm-eabi/4.4.3/../../../../arm-eabi/lib/thumb\libg.a(lib_a-fflush.o)
 .ARM.attributes
                0x00002b74       0x30 c:/devkitpro/devkitarm/bin/../lib/gcc/arm-eabi/4.4.3/../../../../arm-eabi/lib/thumb\libg.a(lib_a-findfp.o)
 .ARM.attributes
                0x00002ba4       0x30 c:/devkitpro/devkitarm/bin/../lib/gcc/arm-eabi/4.4.3/../../../../arm-eabi/lib/thumb\libg.a(lib_a-fopen.o)
 .ARM.attributes
                0x00002bd4       0x30 c:/devkitpro/devkitarm/bin/../lib/gcc/arm-eabi/4.4.3/../../../../arm-eabi/lib/thumb\libg.a(lib_a-fprintf.o)
 .ARM.attributes
                0x00002c04       0x30 c:/devkitpro/devkitarm/bin/../lib/gcc/arm-eabi/4.4.3/../../../../arm-eabi/lib/thumb\libg.a(lib_a-fread.o)
 .ARM.attributes
                0x00002c34       0x30 c:/devkitpro/devkitarm/bin/../lib/gcc/arm-eabi/4.4.3/../../../../arm-eabi/lib/thumb\libg.a(lib_a-freer.o)
 .ARM.attributes
                0x00002c64       0x30 c:/devkitpro/devkitarm/bin/../lib/gcc/arm-eabi/4.4.3/../../../../arm-eabi/lib/thumb\libg.a(lib_a-fseek.o)
 .ARM.attributes
                0x00002c94       0x30 c:/devkitpro/devkitarm/bin/../lib/gcc/arm-eabi/4.4.3/../../../../arm-eabi/lib/thumb\libg.a(lib_a-ftell.o)
 .ARM.attributes
                0x00002cc4       0x30 c:/devkitpro/devkitarm/bin/../lib/gcc/arm-eabi/4.4.3/../../../../arm-eabi/lib/thumb\libg.a(lib_a-fwalk.o)
 .ARM.attributes
                0x00002cf4       0x30 c:/devkitpro/devkitarm/bin/../lib/gcc/arm-eabi/4.4.3/../../../../arm-eabi/lib/thumb\libg.a(lib_a-fwrite.o)
 .ARM.attributes
                0x00002d24       0x30 c:/devkitpro/devkitarm/bin/../lib/gcc/arm-eabi/4.4.3/../../../../arm-eabi/lib/thumb\libg.a(lib_a-gmtime.o)
 .ARM.attributes
                0x00002d54       0x30 c:/devkitpro/devkitarm/bin/../lib/gcc/arm-eabi/4.4.3/../../../../arm-eabi/lib/thumb\libg.a(lib_a-gmtime_r.o)
 .ARM.attributes
                0x00002d84       0x30 c:/devkitpro/devkitarm/bin/../lib/gcc/arm-eabi/4.4.3/../../../../arm-eabi/lib/thumb\libg.a(lib_a-impure.o)
 .ARM.attributes
                0x00002db4       0x30 c:/devkitpro/devkitarm/bin/../lib/gcc/arm-eabi/4.4.3/../../../../arm-eabi/lib/thumb\libg.a(lib_a-init.o)
 .ARM.attributes
                0x00002de4       0x30 c:/devkitpro/devkitarm/bin/../lib/gcc/arm-eabi/4.4.3/../../../../arm-eabi/lib/thumb\libg.a(lib_a-iprintf.o)
 .ARM.attributes
                0x00002e14       0x30 c:/devkitpro/devkitarm/bin/../lib/gcc/arm-eabi/4.4.3/../../../../arm-eabi/lib/thumb\libg.a(lib_a-lcltime_r.o)
 .ARM.attributes
                0x00002e44       0x30 c:/devkitpro/devkitarm/bin/../lib/gcc/arm-eabi/4.4.3/../../../../arm-eabi/lib/thumb\libg.a(lib_a-locale.o)
 .ARM.attributes
                0x00002e74       0x30 c:/devkitpro/devkitarm/bin/../lib/gcc/arm-eabi/4.4.3/../../../../arm-eabi/lib/thumb\libg.a(lib_a-makebuf.o)
 .ARM.attributes
                0x00002ea4       0x30 c:/devkitpro/devkitarm/bin/../lib/gcc/arm-eabi/4.4.3/../../../../arm-eabi/lib/thumb\libg.a(lib_a-malloc.o)
 .ARM.attributes
                0x00002ed4       0x30 c:/devkitpro/devkitarm/bin/../lib/gcc/arm-eabi/4.4.3/../../../../arm-eabi/lib/thumb\libg.a(lib_a-mallocr.o)
 .ARM.attributes
                0x00002f04       0x30 c:/devkitpro/devkitarm/bin/../lib/gcc/arm-eabi/4.4.3/../../../../arm-eabi/lib/thumb\libg.a(lib_a-mbrtowc.o)
 .ARM.attributes
                0x00002f34       0x30 c:/devkitpro/devkitarm/bin/../lib/gcc/arm-eabi/4.4.3/../../../../arm-eabi/lib/thumb\libg.a(lib_a-mbsrtowcs.o)
 .ARM.attributes
                0x00002f64       0x30 c:/devkitpro/devkitarm/bin/../lib/gcc/arm-eabi/4.4.3/../../../../arm-eabi/lib/thumb\libg.a(lib_a-mbtowc_r.o)
 .ARM.attributes
                0x00002f94       0x30 c:/devkitpro/devkitarm/bin/../lib/gcc/arm-eabi/4.4.3/../../../../arm-eabi/lib/thumb\libg.a(lib_a-memcmp.o)
 .ARM.attributes
                0x00002fc4       0x30 c:/devkitpro/devkitarm/bin/../lib/gcc/arm-eabi/4.4.3/../../../../arm-eabi/lib/thumb\libg.a(lib_a-memcpy.o)
 .ARM.attributes
                0x00002ff4       0x30 c:/devkitpro/devkitarm/bin/../lib/gcc/arm-eabi/4.4.3/../../../../arm-eabi/lib/thumb\libg.a(lib_a-memmove.o)
 .ARM.attributes
                0x00003024       0x30 c:/devkitpro/devkitarm/bin/../lib/gcc/arm-eabi/4.4.3/../../../../arm-eabi/lib/thumb\libg.a(lib_a-memset.o)
 .ARM.attributes
                0x00003054       0x30 c:/devkitpro/devkitarm/bin/../lib/gcc/arm-eabi/4.4.3/../../../../arm-eabi/lib/thumb\libg.a(lib_a-mktime.o)
 .ARM.attributes
                0x00003084       0x30 c:/devkitpro/devkitarm/bin/../lib/gcc/arm-eabi/4.4.3/../../../../arm-eabi/lib/thumb\libg.a(lib_a-mktm_r.o)
 .ARM.attributes
                0x000030b4       0x30 c:/devkitpro/devkitarm/bin/../lib/gcc/arm-eabi/4.4.3/../../../../arm-eabi/lib/thumb\libg.a(lib_a-mlock.o)
 .ARM.attributes
                0x000030e4       0x30 c:/devkitpro/devkitarm/bin/../lib/gcc/arm-eabi/4.4.3/../../../../arm-eabi/lib/thumb\libg.a(lib_a-realloc.o)
 .ARM.attributes
                0x00003114       0x30 c:/devkitpro/devkitarm/bin/../lib/gcc/arm-eabi/4.4.3/../../../../arm-eabi/lib/thumb\libg.a(lib_a-reallocr.o)
 .ARM.attributes
                0x00003144       0x30 c:/devkitpro/devkitarm/bin/../lib/gcc/arm-eabi/4.4.3/../../../../arm-eabi/lib/thumb\libg.a(lib_a-refill.o)
 .ARM.attributes
                0x00003174       0x30 c:/devkitpro/devkitarm/bin/../lib/gcc/arm-eabi/4.4.3/../../../../arm-eabi/lib/thumb\libg.a(lib_a-rewind.o)
 .ARM.attributes
                0x000031a4       0x30 c:/devkitpro/devkitarm/bin/../lib/gcc/arm-eabi/4.4.3/../../../../arm-eabi/lib/thumb\libg.a(lib_a-setvbuf.o)
 .ARM.attributes
                0x000031d4       0x30 c:/devkitpro/devkitarm/bin/../lib/gcc/arm-eabi/4.4.3/../../../../arm-eabi/lib/thumb\libg.a(lib_a-siscanf.o)
 .ARM.attributes
                0x00003204       0x30 c:/devkitpro/devkitarm/bin/../lib/gcc/arm-eabi/4.4.3/../../../../arm-eabi/lib/thumb\libg.a(lib_a-snprintf.o)
 .ARM.attributes
                0x00003234       0x30 c:/devkitpro/devkitarm/bin/../lib/gcc/arm-eabi/4.4.3/../../../../arm-eabi/lib/thumb\libg.a(lib_a-sprintf.o)
 .ARM.attributes
                0x00003264       0x30 c:/devkitpro/devkitarm/bin/../lib/gcc/arm-eabi/4.4.3/../../../../arm-eabi/lib/thumb\libg.a(lib_a-stdio.o)
 .ARM.attributes
                0x00003294       0x30 c:/devkitpro/devkitarm/bin/../lib/gcc/arm-eabi/4.4.3/../../../../arm-eabi/lib/thumb\libg.a(lib_a-strcasecmp.o)
 .ARM.attributes
                0x000032c4       0x30 c:/devkitpro/devkitarm/bin/../lib/gcc/arm-eabi/4.4.3/../../../../arm-eabi/lib/thumb\libg.a(lib_a-strcat.o)
 .ARM.attributes
                0x000032f4       0x30 c:/devkitpro/devkitarm/bin/../lib/gcc/arm-eabi/4.4.3/../../../../arm-eabi/lib/thumb\libg.a(lib_a-strchr.o)
 .ARM.attributes
                0x00003324       0x30 c:/devkitpro/devkitarm/bin/../lib/gcc/arm-eabi/4.4.3/../../../../arm-eabi/lib/thumb\libg.a(lib_a-strcmp.o)
 .ARM.attributes
                0x00003354       0x30 c:/devkitpro/devkitarm/bin/../lib/gcc/arm-eabi/4.4.3/../../../../arm-eabi/lib/thumb\libg.a(lib_a-strcpy.o)
 .ARM.attributes
                0x00003384       0x30 c:/devkitpro/devkitarm/bin/../lib/gcc/arm-eabi/4.4.3/../../../../arm-eabi/lib/thumb\libg.a(lib_a-strlcpy.o)
 .ARM.attributes
                0x000033b4       0x30 c:/devkitpro/devkitarm/bin/../lib/gcc/arm-eabi/4.4.3/../../../../arm-eabi/lib/thumb\libg.a(lib_a-strlen.o)
 .ARM.attributes
                0x000033e4       0x30 c:/devkitpro/devkitarm/bin/../lib/gcc/arm-eabi/4.4.3/../../../../arm-eabi/lib/thumb\libg.a(lib_a-strncasecmp.o)
 .ARM.attributes
                0x00003414       0x30 c:/devkitpro/devkitarm/bin/../lib/gcc/arm-eabi/4.4.3/../../../../arm-eabi/lib/thumb\libg.a(lib_a-strncmp.o)
 .ARM.attributes
                0x00003444       0x30 c:/devkitpro/devkitarm/bin/../lib/gcc/arm-eabi/4.4.3/../../../../arm-eabi/lib/thumb\libg.a(lib_a-strncpy.o)
 .ARM.attributes
                0x00003474       0x30 c:/devkitpro/devkitarm/bin/../lib/gcc/arm-eabi/4.4.3/../../../../arm-eabi/lib/thumb\libg.a(lib_a-strnlen.o)
 .ARM.attributes
                0x000034a4       0x30 c:/devkitpro/devkitarm/bin/../lib/gcc/arm-eabi/4.4.3/../../../../arm-eabi/lib/thumb\libg.a(lib_a-strpbrk.o)
 .ARM.attributes
                0x000034d4       0x30 c:/devkitpro/devkitarm/bin/../lib/gcc/arm-eabi/4.4.3/../../../../arm-eabi/lib/thumb\libg.a(lib_a-strrchr.o)
 .ARM.attributes
                0x00003504       0x30 c:/devkitpro/devkitarm/bin/../lib/gcc/arm-eabi/4.4.3/../../../../arm-eabi/lib/thumb\libg.a(lib_a-strstr.o)
 .ARM.attributes
                0x00003534       0x30 c:/devkitpro/devkitarm/bin/../lib/gcc/arm-eabi/4.4.3/../../../../arm-eabi/lib/thumb\libg.a(lib_a-strtol.o)
 .ARM.attributes
                0x00003564       0x30 c:/devkitpro/devkitarm/bin/../lib/gcc/arm-eabi/4.4.3/../../../../arm-eabi/lib/thumb\libg.a(lib_a-strtoul.o)
 .ARM.attributes
                0x00003594       0x30 c:/devkitpro/devkitarm/bin/../lib/gcc/arm-eabi/4.4.3/../../../../arm-eabi/lib/thumb\libg.a(lib_a-svfiscanf.o)
 .ARM.attributes
                0x000035c4       0x30 c:/devkitpro/devkitarm/bin/../lib/gcc/arm-eabi/4.4.3/../../../../arm-eabi/lib/thumb\libg.a(lib_a-svfprintf.o)
 .ARM.attributes
                0x000035f4       0x30 c:/devkitpro/devkitarm/bin/../lib/gcc/arm-eabi/4.4.3/../../../../arm-eabi/lib/thumb\libg.a(lib_a-sysclose.o)
 .ARM.attributes
                0x00003624       0x30 c:/devkitpro/devkitarm/bin/../lib/gcc/arm-eabi/4.4.3/../../../../arm-eabi/lib/thumb\libg.a(lib_a-syslseek.o)
 .ARM.attributes
                0x00003654       0x30 c:/devkitpro/devkitarm/bin/../lib/gcc/arm-eabi/4.4.3/../../../../arm-eabi/lib/thumb\libg.a(lib_a-sysopen.o)
 .ARM.attributes
                0x00003684       0x30 c:/devkitpro/devkitarm/bin/../lib/gcc/arm-eabi/4.4.3/../../../../arm-eabi/lib/thumb\libg.a(lib_a-sysread.o)
 .ARM.attributes
                0x000036b4       0x30 c:/devkitpro/devkitarm/bin/../lib/gcc/arm-eabi/4.4.3/../../../../arm-eabi/lib/thumb\libg.a(lib_a-sysstat.o)
 .ARM.attributes
                0x000036e4       0x30 c:/devkitpro/devkitarm/bin/../lib/gcc/arm-eabi/4.4.3/../../../../arm-eabi/lib/thumb\libg.a(lib_a-time.o)
 .ARM.attributes
                0x00003714       0x30 c:/devkitpro/devkitarm/bin/../lib/gcc/arm-eabi/4.4.3/../../../../arm-eabi/lib/thumb\libg.a(lib_a-towlower.o)
 .ARM.attributes
                0x00003744       0x30 c:/devkitpro/devkitarm/bin/../lib/gcc/arm-eabi/4.4.3/../../../../arm-eabi/lib/thumb\libg.a(lib_a-towupper.o)
 .ARM.attributes
                0x00003774       0x30 c:/devkitpro/devkitarm/bin/../lib/gcc/arm-eabi/4.4.3/../../../../arm-eabi/lib/thumb\libg.a(lib_a-tzlock.o)
 .ARM.attributes
                0x000037a4       0x30 c:/devkitpro/devkitarm/bin/../lib/gcc/arm-eabi/4.4.3/../../../../arm-eabi/lib/thumb\libg.a(lib_a-tzvars.o)
 .ARM.attributes
                0x000037d4       0x30 c:/devkitpro/devkitarm/bin/../lib/gcc/arm-eabi/4.4.3/../../../../arm-eabi/lib/thumb\libg.a(lib_a-ungetc.o)
 .ARM.attributes
                0x00003804       0x30 c:/devkitpro/devkitarm/bin/../lib/gcc/arm-eabi/4.4.3/../../../../arm-eabi/lib/thumb\libg.a(lib_a-vfiprintf.o)
 .ARM.attributes
                0x00003834       0x30 c:/devkitpro/devkitarm/bin/../lib/gcc/arm-eabi/4.4.3/../../../../arm-eabi/lib/thumb\libg.a(lib_a-vfprintf.o)
 .ARM.attributes
                0x00003864       0x30 c:/devkitpro/devkitarm/bin/../lib/gcc/arm-eabi/4.4.3/../../../../arm-eabi/lib/thumb\libg.a(lib_a-wcrtomb.o)
 .ARM.attributes
                0x00003894       0x30 c:/devkitpro/devkitarm/bin/../lib/gcc/arm-eabi/4.4.3/../../../../arm-eabi/lib/thumb\libg.a(lib_a-wcsrtombs.o)
 .ARM.attributes
                0x000038c4       0x30 c:/devkitpro/devkitarm/bin/../lib/gcc/arm-eabi/4.4.3/../../../../arm-eabi/lib/thumb\libg.a(lib_a-wctob.o)
 .ARM.attributes
                0x000038f4       0x30 c:/devkitpro/devkitarm/bin/../lib/gcc/arm-eabi/4.4.3/../../../../arm-eabi/lib/thumb\libg.a(lib_a-wctomb_r.o)
 .ARM.attributes
                0x00003924       0x30 c:/devkitpro/devkitarm/bin/../lib/gcc/arm-eabi/4.4.3/../../../../arm-eabi/lib/thumb\libg.a(lib_a-wsetup.o)
 .ARM.attributes
                0x00003954       0x30 c:/devkitpro/devkitarm/bin/../lib/gcc/arm-eabi/4.4.3/../../../../arm-eabi/lib/thumb\libg.a(lib_a-ctype_.o)
 .ARM.attributes
                0x00003984       0x30 c:/devkitpro/devkitarm/bin/../lib/gcc/arm-eabi/4.4.3/../../../../arm-eabi/lib/thumb\libg.a(lib_a-div.o)
 .ARM.attributes
                0x000039b4       0x30 c:/devkitpro/devkitarm/bin/../lib/gcc/arm-eabi/4.4.3/../../../../arm-eabi/lib/thumb\libg.a(lib_a-dtoa.o)
 .ARM.attributes
                0x000039e4       0x30 c:/devkitpro/devkitarm/bin/../lib/gcc/arm-eabi/4.4.3/../../../../arm-eabi/lib/thumb\libg.a(lib_a-flags.o)
 .ARM.attributes
                0x00003a14       0x30 c:/devkitpro/devkitarm/bin/../lib/gcc/arm-eabi/4.4.3/../../../../arm-eabi/lib/thumb\libg.a(lib_a-fputwc.o)
 .ARM.attributes
                0x00003a44       0x30 c:/devkitpro/devkitarm/bin/../lib/gcc/arm-eabi/4.4.3/../../../../arm-eabi/lib/thumb\libg.a(lib_a-fvwrite.o)
 .ARM.attributes
                0x00003a74       0x30 c:/devkitpro/devkitarm/bin/../lib/gcc/arm-eabi/4.4.3/../../../../arm-eabi/lib/thumb\libg.a(lib_a-getenv_r.o)
 .ARM.attributes
                0x00003aa4       0x30 c:/devkitpro/devkitarm/bin/../lib/gcc/arm-eabi/4.4.3/../../../../arm-eabi/lib/thumb\libg.a(lib_a-gettzinfo.o)
 .ARM.attributes
                0x00003ad4       0x30 c:/devkitpro/devkitarm/bin/../lib/gcc/arm-eabi/4.4.3/../../../../arm-eabi/lib/thumb\libg.a(lib_a-iswspace.o)
 .ARM.attributes
                0x00003b04       0x30 c:/devkitpro/devkitarm/bin/../lib/gcc/arm-eabi/4.4.3/../../../../arm-eabi/lib/thumb\libg.a(lib_a-jp2uc.o)
 .ARM.attributes
                0x00003b34       0x30 c:/devkitpro/devkitarm/bin/../lib/gcc/arm-eabi/4.4.3/../../../../arm-eabi/lib/thumb\libg.a(lib_a-mbsnrtowcs.o)
 .ARM.attributes
                0x00003b64       0x30 c:/devkitpro/devkitarm/bin/../lib/gcc/arm-eabi/4.4.3/../../../../arm-eabi/lib/thumb\libg.a(lib_a-memchr.o)
 .ARM.attributes
                0x00003b94       0x30 c:/devkitpro/devkitarm/bin/../lib/gcc/arm-eabi/4.4.3/../../../../arm-eabi/lib/thumb\libg.a(lib_a-mprec.o)
 .ARM.attributes
                0x00003bc4       0x30 c:/devkitpro/devkitarm/bin/../lib/gcc/arm-eabi/4.4.3/../../../../arm-eabi/lib/thumb\libg.a(lib_a-s_fpclassify.o)
 .ARM.attributes
                0x00003bf4       0x30 c:/devkitpro/devkitarm/bin/../lib/gcc/arm-eabi/4.4.3/../../../../arm-eabi/lib/thumb\libg.a(lib_a-sccl.o)
 .ARM.attributes
                0x00003c24       0x30 c:/devkitpro/devkitarm/bin/../lib/gcc/arm-eabi/4.4.3/../../../../arm-eabi/lib/thumb\libg.a(lib_a-svfiprintf.o)
 .ARM.attributes
                0x00003c54       0x30 c:/devkitpro/devkitarm/bin/../lib/gcc/arm-eabi/4.4.3/../../../../arm-eabi/lib/thumb\libg.a(lib_a-wbuf.o)
 .ARM.attributes
                0x00003c84       0x30 c:/devkitpro/devkitarm/bin/../lib/gcc/arm-eabi/4.4.3/../../../../arm-eabi/lib/thumb\libg.a(lib_a-wcsnrtombs.o)
 .ARM.attributes
                0x00003cb4       0x30 c:/devkitpro/devkitarm/bin/../lib/gcc/arm-eabi/4.4.3/../../../../arm-eabi/lib/thumb\libg.a(lib_a-environ.o)
 .ARM.attributes
                0x00003ce4       0x30 c:/devkitpro/devkitarm/bin/../lib/gcc/arm-eabi/4.4.3/../../../../arm-eabi/lib/thumb\libg.a(lib_a-envlock.o)
 .ARM.attributes
                0x00003d14       0x30 c:/devkitpro/devkitarm/bin/../lib/gcc/arm-eabi/4.4.3/../../../../arm-eabi/lib/thumb\libsysbase.a(iosupport.o)
 .ARM.attributes
                0x00003d44       0x30 c:/devkitpro/devkitarm/bin/../lib/gcc/arm-eabi/4.4.3/../../../../arm-eabi/lib/thumb\libsysbase.a(close.o)
 .ARM.attributes
                0x00003d74       0x30 c:/devkitpro/devkitarm/bin/../lib/gcc/arm-eabi/4.4.3/../../../../arm-eabi/lib/thumb\libsysbase.a(fstat.o)
 .ARM.attributes
                0x00003da4       0x30 c:/devkitpro/devkitarm/bin/../lib/gcc/arm-eabi/4.4.3/../../../../arm-eabi/lib/thumb\libsysbase.a(isatty.o)
 .ARM.attributes
                0x00003dd4       0x30 c:/devkitpro/devkitarm/bin/../lib/gcc/arm-eabi/4.4.3/../../../../arm-eabi/lib/thumb\libsysbase.a(lseek.o)
 .ARM.attributes
                0x00003e04       0x30 c:/devkitpro/devkitarm/bin/../lib/gcc/arm-eabi/4.4.3/../../../../arm-eabi/lib/thumb\libsysbase.a(open.o)
 .ARM.attributes
                0x00003e34       0x30 c:/devkitpro/devkitarm/bin/../lib/gcc/arm-eabi/4.4.3/../../../../arm-eabi/lib/thumb\libsysbase.a(read.o)
 .ARM.attributes
                0x00003e64       0x30 c:/devkitpro/devkitarm/bin/../lib/gcc/arm-eabi/4.4.3/../../../../arm-eabi/lib/thumb\libsysbase.a(sbrk.o)
 .ARM.attributes
                0x00003e94       0x30 c:/devkitpro/devkitarm/bin/../lib/gcc/arm-eabi/4.4.3/../../../../arm-eabi/lib/thumb\libsysbase.a(stat.o)
 .ARM.attributes
                0x00003ec4       0x30 c:/devkitpro/devkitarm/bin/../lib/gcc/arm-eabi/4.4.3/../../../../arm-eabi/lib/thumb\libsysbase.a(times.o)
 .ARM.attributes
                0x00003ef4       0x30 c:/devkitpro/devkitarm/bin/../lib/gcc/arm-eabi/4.4.3/../../../../arm-eabi/lib/thumb\libsysbase.a(write.o)
 .ARM.attributes
                0x00003f24       0x30 c:/devkitpro/devkitarm/bin/../lib/gcc/arm-eabi/4.4.3/../../../../arm-eabi/lib/thumb\libsysbase.a(malloc_vars.o)
 .ARM.attributes
                0x00003f54       0x30 c:/devkitpro/devkitarm/bin/../lib/gcc/arm-eabi/4.4.3/../../../../arm-eabi/lib/thumb\libsysbase.a(chdir.o)
 .ARM.attributes
                0x00003f84       0x30 c:/devkitpro/devkitarm/bin/../lib/gcc/arm-eabi/4.4.3/../../../../arm-eabi/lib/thumb\libsysbase.a(build_argv.o)
 .ARM.attributes
                0x00003fb4       0x30 c:/devkitpro/devkitarm/bin/../lib/gcc/arm-eabi/4.4.3/../../../../arm-eabi/lib/thumb\libsysbase.a(syscall_support.o)
 .ARM.attributes
                0x00003fe4       0x30 c:/devkitpro/devkitarm/bin/../lib/gcc/arm-eabi/4.4.3/../../../../arm-eabi/lib/thumb\libsysbase.a(handle_manager.o)
 .ARM.attributes
                0x00004014       0x30 c:/devkitpro/devkitarm/bin/../lib/gcc/arm-eabi/4.4.3/../../../../arm-eabi/lib/thumb\libsysbase.a(dirent.o)
 .ARM.attributes
                0x00004044       0x30 c:/devkitpro/devkitarm/bin/../lib/gcc/arm-eabi/4.4.3/../../../../arm-eabi/lib/thumb\libsysbase.a(dir.o)
 .ARM.attributes
                0x00004074       0x30 c:/devkitpro/devkitarm/bin/../lib/gcc/arm-eabi/4.4.3/thumb/crtend.o
 .ARM.attributes
                0x000040a4       0x20 c:/devkitpro/devkitarm/bin/../lib/gcc/arm-eabi/4.4.3/thumb/crtn.o

.comment        0x00000000       0x44 load address 0x02232870
 *(.comment)
 .comment       0x00000000       0x22 c:/devkitpro/devkitarm/bin/../lib/gcc/arm-eabi/4.4.3/thumb/crtbegin.o
                                 0x23 (size before relaxing)
 .comment       0x00000000       0x23 ky_geturl.o
 .comment       0x00000000       0x23 main.o
 .comment       0x00000000       0x23 BG2_bas_alg.o
 .comment       0x00000000       0x23 BG2_bas_amazonia.o
 .comment       0x00000000       0x23 BG2_bas_arg.o
 .comment       0x00000000       0x23 BG2_bas_aus.o
 .comment       0x00000000       0x23 BG2_bas_baixada.o
 .comment       0x00000000       0x23 BG2_bas_beirario.o
 .comment       0x00000000       0x23 BG2_bas_bel.o
 .comment       0x00000000       0x23 BG2_bas_bih.o
 .comment       0x00000000       0x23 BG2_bas_bra.o
 .comment       0x00000000       0x23 BG2_bas_castelao.o
 .comment       0x00000000       0x23 BG2_bas_chi.o
 .comment       0x00000000       0x23 BG2_bas_civ.o
 .comment       0x00000000       0x23 BG2_bas_cmr.o
 .comment       0x00000000       0x23 BG2_bas_col.o
 .comment       0x00000000       0x23 BG2_bas_crc.o
 .comment       0x00000000       0x23 BG2_bas_cro.o
 .comment       0x00000000       0x23 BG2_bas_dasdunas.o
 .comment       0x00000000       0x23 BG2_bas_ecu.o
 .comment       0x00000000       0x23 BG2_bas_eng.o
 .comment       0x00000000       0x23 BG2_bas_esp.o
 .comment       0x00000000       0x23 BG2_bas_fontenova.o
 .comment       0x00000000       0x23 BG2_bas_fra.o
 .comment       0x00000000       0x23 BG2_bas_ger.o
 .comment       0x00000000       0x23 BG2_bas_gha.o
 .comment       0x00000000       0x23 BG2_bas_gre.o
 .comment       0x00000000       0x23 BG2_bas_hon.o
 .comment       0x00000000       0x23 BG2_bas_irn.o
 .comment       0x00000000       0x23 BG2_bas_ita.o
 .comment       0x00000000       0x23 BG2_bas_jpn.o
 .comment       0x00000000       0x23 BG2_bas_kor.o
 .comment       0x00000000       0x23 BG2_bas_maracana.o
 .comment       0x00000000       0x23 BG2_bas_mex.o
 .comment       0x00000000       0x23 BG2_bas_mineirao.o
 .comment       0x00000000       0x23 BG2_bas_nacional.o
 .comment       0x00000000       0x23 BG2_bas_ned.o
 .comment       0x00000000       0x23 BG2_bas_nga.o
 .comment       0x00000000       0x23 BG2_bas_pantanal.o
 .comment       0x00000000       0x23 BG2_bas_pernambuco.o
 .comment       0x00000000       0x23 BG2_bas_por.o
 .comment       0x00000000       0x23 BG2_bas_rus.o
 .comment       0x00000000       0x23 BG2_bas_saopaulo.o
 .comment       0x00000000       0x23 BG2_bas_selection.o
 .comment       0x00000000       0x23 BG2_bas_sui.o
 .comment       0x00000000       0x23 BG2_bas_uru.o
 .comment       0x00000000       0x23 BG2_bas_usa.o
 .comment       0x00000000       0x23 newfont.o
 .comment       0x00000000       0x23 c:/devkitPro/PAlib/lib\libpa9.a(PA_BgTiles.o)
 .comment       0x00000000       0x23 c:/devkitPro/PAlib/lib\libpa9.a(PA.o)
 .comment       0x00000000       0x23 c:/devkitPro/PAlib/lib\libpa9.a(PA_Draw8bit.o)
 .comment       0x00000000       0x23 c:/devkitPro/PAlib/lib\libpa9.a(PA_Draw.o)
 .comment       0x00000000       0x23 c:/devkitPro/PAlib/lib\libpa9.a(PA_Error.o)
 .comment       0x00000000       0x23 c:/devkitPro/PAlib/lib\libpa9.a(PA_Gif.o)
 .comment       0x00000000       0x23 c:/devkitPro/PAlib/lib\libpa9.a(PA_Inits.o)
 .comment       0x00000000       0x23 c:/devkitPro/PAlib/lib\libpa9.a(PA_Interrupt.o)
 .comment       0x00000000       0x23 c:/devkitPro/PAlib/lib\libpa9.a(PA_Keys.o)
 .comment       0x00000000       0x23 c:/devkitPro/PAlib/lib\libpa9.a(PA_Math.o)
 .comment       0x00000000       0x23 c:/devkitPro/PAlib/lib\libpa9.a(PA_NewBg.o)
 .comment       0x00000000       0x23 c:/devkitPro/PAlib/lib\libpa9.a(PA_Palette.o)
 .comment       0x00000000       0x23 c:/devkitPro/PAlib/lib\libpa9.a(PA_Reco.o)
 .comment       0x00000000       0x23 c:/devkitPro/PAlib/lib\libpa9.a(PA_RTC.o)
 .comment       0x00000000       0x23 c:/devkitPro/PAlib/lib\libpa9.a(PA_SpriteAnim.o)
 .comment       0x00000000       0x23 c:/devkitPro/PAlib/lib\libpa9.a(PA_Sprite.o)
 .comment       0x00000000       0x23 c:/devkitPro/PAlib/lib\libpa9.a(PA_Stuff.o)
 .comment       0x00000000       0x23 c:/devkitPro/PAlib/lib\libpa9.a(PA_Text8bit.o)
 .comment       0x00000000       0x23 c:/devkitPro/PAlib/lib\libpa9.a(PA_TextBits.o)
 .comment       0x00000000       0x23 c:/devkitPro/PAlib/lib\libpa9.a(PA_Text.o)
 .comment       0x00000000       0x23 c:/devkitPro/PAlib/lib\libpa9.a(dgif_lib.o)
 .comment       0x00000000       0x23 c:/devkitPro/PAlib/lib\libpa9.a(gifalloc.o)
 .comment       0x00000000       0x23 c:/devkitPro/PAlib/lib\libpa9.a(gif_err.o)
 .comment       0x00000000       0x23 c:/devkitPro/PAlib/lib\libpa9.a(PA_TiledFont.o)
 .comment       0x00000000       0x23 c:/devkitPro/PAlib/lib\libpa9.a(PA_BmpFont0.o)
 .comment       0x00000000       0x23 c:/devkitPro/PAlib/lib\libpa9.a(PA_BmpFont1.o)
 .comment       0x00000000       0x23 c:/devkitPro/PAlib/lib\libpa9.a(PA_BmpFont2.o)
 .comment       0x00000000       0x23 c:/devkitPro/PAlib/lib\libpa9.a(PA_BmpFont3.o)
 .comment       0x00000000       0x23 c:/devkitPro/PAlib/lib\libpa9.a(PA_BmpFont4.o)
 .comment       0x00000000       0x23 c:/devkitPro/PAlib/lib\libpa9.a(PA_16c.o)
 .comment       0x00000000       0x23 c:/devkitPro/PAlib/lib\libpa9.a(PA_BgEasy.o)
 .comment       0x00000000       0x23 c:/devkitPro/PAlib/lib\libpa9.a(PA_BgLargeMap.o)
 .comment       0x00000000       0x23 c:/devkitPro/PAlib/lib\libpa9.a(PA_BgRot.o)
 .comment       0x00000000       0x23 c:/devkitPro/PAlib/lib\libpa9.a(PA_Fifo.o)
 .comment       0x00000000       0x23 c:/devkitPro/PAlib/lib\libpa9.a(PA_Keyboard.o)
 .comment       0x00000000       0x23 c:/devkitPro/PAlib/lib\libpa9.a(PA_PaletteEx.o)
 .comment       0x00000000       0x23 c:/devkitPro/PAlib/lib\libpa9.a(keyboard.map.o)
 .comment       0x00000000       0x23 c:/devkitPro/PAlib/lib\libpa9.a(keyboard.pal.o)
 .comment       0x00000000       0x23 c:/devkitPro/PAlib/lib\libpa9.a(keyboard.raw.o)
 .comment       0x00000022       0x22 c:/devkitPro/libnds/lib\libfat.a(libfat.o)
                                 0x23 (size before relaxing)
 .comment       0x00000000       0x23 c:/devkitPro/libnds/lib\libfat.a(partition.o)
 .comment       0x00000000       0x23 c:/devkitPro/libnds/lib\libfat.a(cache.o)
 .comment       0x00000000       0x23 c:/devkitPro/libnds/lib\libfat.a(directory.o)
 .comment       0x00000000       0x23 c:/devkitPro/libnds/lib\libfat.a(disc.o)
 .comment       0x00000000       0x23 c:/devkitPro/libnds/lib\libfat.a(fatdir.o)
 .comment       0x00000000       0x23 c:/devkitPro/libnds/lib\libfat.a(fatfile.o)
 .comment       0x00000000       0x23 c:/devkitPro/libnds/lib\libfat.a(file_allocation_table.o)
 .comment       0x00000000       0x23 c:/devkitPro/libnds/lib\libfat.a(filetime.o)
 .comment       0x00000000       0x23 c:/devkitPro/libnds/lib\libnds9.a(gurumeditation.o)
 .comment       0x00000000       0x23 c:/devkitPro/libnds/lib\libnds9.a(keys.o)
 .comment       0x00000000       0x23 c:/devkitPro/libnds/lib\libnds9.a(system.o)
 .comment       0x00000000       0x23 c:/devkitPro/libnds/lib\libnds9.a(touch.o)
 .comment       0x00000000       0x23 c:/devkitPro/libnds/lib\libnds9.a(video.o)
 .comment       0x00000000       0x23 c:/devkitPro/libnds/lib\libnds9.a(dldi.o)
 .comment       0x00000000       0x23 c:/devkitPro/libnds/lib\libnds9.a(initSystem.o)
 .comment       0x00000000       0x23 c:/devkitPro/libnds/lib\libnds9.a(fifosystem.o)
 .comment       0x00000000       0x23 c:/devkitPro/libnds/lib\libnds9.a(interrupts.o)
 .comment       0x00000000       0x23 c:/devkitPro/libnds/lib\libnds9.a(libnds_exit.o)
 .comment       0x00000000       0x23 c:/devkitPro/libnds/lib\libnds9.a(console.o)
 .comment       0x00000000       0x23 c:/devkitPro/libnds/lib\libnds9.a(exceptions.o)
 .comment       0x00000000       0x23 c:/devkitPro/libnds/lib\libnds9.a(background.o)
 .comment       0x00000000       0x23 c:/devkitPro/libnds/lib\libnds9.a(trig.o)
 .comment       0x00000000       0x23 c:/devkitPro/libnds/lib\libdswifi9.a(sgIP_Hub.o)
 .comment       0x00000000       0x23 c:/devkitPro/libnds/lib\libdswifi9.a(sgIP_memblock.o)
 .comment       0x00000000       0x23 c:/devkitPro/libnds/lib\libdswifi9.a(sgIP_sockets.o)
 .comment       0x00000000       0x23 c:/devkitPro/libnds/lib\libdswifi9.a(wifi_arm9.o)
 .comment       0x00000000       0x23 c:/devkitPro/libnds/lib\libdswifi9.a(sgIP.o)
 .comment       0x00000000       0x23 c:/devkitPro/libnds/lib\libdswifi9.a(sgIP_ARP.o)
 .comment       0x00000000       0x23 c:/devkitPro/libnds/lib\libdswifi9.a(sgIP_DHCP.o)
 .comment       0x00000000       0x23 c:/devkitPro/libnds/lib\libdswifi9.a(sgIP_DNS.o)
 .comment       0x00000000       0x23 c:/devkitPro/libnds/lib\libdswifi9.a(sgIP_IP.o)
 .comment       0x00000000       0x23 c:/devkitPro/libnds/lib\libdswifi9.a(sgIP_TCP.o)
 .comment       0x00000000       0x23 c:/devkitPro/libnds/lib\libdswifi9.a(sgIP_UDP.o)
 .comment       0x00000000       0x23 c:/devkitPro/libnds/lib\libdswifi9.a(sgIP_ICMP.o)
 .comment       0x00000000       0x23 c:/devkitpro/devkitarm/bin/../lib/gcc/arm-eabi/4.4.3/thumb\libgcc.a(_muldi3.o)
 .comment       0x00000000       0x23 c:/devkitpro/devkitarm/bin/../lib/gcc/arm-eabi/4.4.3/../../../../arm-eabi/lib/thumb\libg.a(lib_a-bsearch.o)
 .comment       0x00000000       0x23 c:/devkitpro/devkitarm/bin/../lib/gcc/arm-eabi/4.4.3/../../../../arm-eabi/lib/thumb\libg.a(lib_a-calloc.o)
 .comment       0x00000000       0x23 c:/devkitpro/devkitarm/bin/../lib/gcc/arm-eabi/4.4.3/../../../../arm-eabi/lib/thumb\libg.a(lib_a-callocr.o)
 .comment       0x00000000       0x23 c:/devkitpro/devkitarm/bin/../lib/gcc/arm-eabi/4.4.3/../../../../arm-eabi/lib/thumb\libg.a(lib_a-errno.o)
 .comment       0x00000000       0x23 c:/devkitpro/devkitarm/bin/../lib/gcc/arm-eabi/4.4.3/../../../../arm-eabi/lib/thumb\libg.a(lib_a-fclose.o)
 .comment       0x00000000       0x23 c:/devkitpro/devkitarm/bin/../lib/gcc/arm-eabi/4.4.3/../../../../arm-eabi/lib/thumb\libg.a(lib_a-fflush.o)
 .comment       0x00000000       0x23 c:/devkitpro/devkitarm/bin/../lib/gcc/arm-eabi/4.4.3/../../../../arm-eabi/lib/thumb\libg.a(lib_a-findfp.o)
 .comment       0x00000000       0x23 c:/devkitpro/devkitarm/bin/../lib/gcc/arm-eabi/4.4.3/../../../../arm-eabi/lib/thumb\libg.a(lib_a-fopen.o)
 .comment       0x00000000       0x23 c:/devkitpro/devkitarm/bin/../lib/gcc/arm-eabi/4.4.3/../../../../arm-eabi/lib/thumb\libg.a(lib_a-fprintf.o)
 .comment       0x00000000       0x23 c:/devkitpro/devkitarm/bin/../lib/gcc/arm-eabi/4.4.3/../../../../arm-eabi/lib/thumb\libg.a(lib_a-fread.o)
 .comment       0x00000000       0x23 c:/devkitpro/devkitarm/bin/../lib/gcc/arm-eabi/4.4.3/../../../../arm-eabi/lib/thumb\libg.a(lib_a-freer.o)
 .comment       0x00000000       0x23 c:/devkitpro/devkitarm/bin/../lib/gcc/arm-eabi/4.4.3/../../../../arm-eabi/lib/thumb\libg.a(lib_a-fseek.o)
 .comment       0x00000000       0x23 c:/devkitpro/devkitarm/bin/../lib/gcc/arm-eabi/4.4.3/../../../../arm-eabi/lib/thumb\libg.a(lib_a-ftell.o)
 .comment       0x00000000       0x23 c:/devkitpro/devkitarm/bin/../lib/gcc/arm-eabi/4.4.3/../../../../arm-eabi/lib/thumb\libg.a(lib_a-fwalk.o)
 .comment       0x00000000       0x23 c:/devkitpro/devkitarm/bin/../lib/gcc/arm-eabi/4.4.3/../../../../arm-eabi/lib/thumb\libg.a(lib_a-fwrite.o)
 .comment       0x00000000       0x23 c:/devkitpro/devkitarm/bin/../lib/gcc/arm-eabi/4.4.3/../../../../arm-eabi/lib/thumb\libg.a(lib_a-gmtime.o)
 .comment       0x00000000       0x23 c:/devkitpro/devkitarm/bin/../lib/gcc/arm-eabi/4.4.3/../../../../arm-eabi/lib/thumb\libg.a(lib_a-gmtime_r.o)
 .comment       0x00000000       0x23 c:/devkitpro/devkitarm/bin/../lib/gcc/arm-eabi/4.4.3/../../../../arm-eabi/lib/thumb\libg.a(lib_a-impure.o)
 .comment       0x00000000       0x23 c:/devkitpro/devkitarm/bin/../lib/gcc/arm-eabi/4.4.3/../../../../arm-eabi/lib/thumb\libg.a(lib_a-init.o)
 .comment       0x00000000       0x23 c:/devkitpro/devkitarm/bin/../lib/gcc/arm-eabi/4.4.3/../../../../arm-eabi/lib/thumb\libg.a(lib_a-iprintf.o)
 .comment       0x00000000       0x23 c:/devkitpro/devkitarm/bin/../lib/gcc/arm-eabi/4.4.3/../../../../arm-eabi/lib/thumb\libg.a(lib_a-lcltime_r.o)
 .comment       0x00000000       0x23 c:/devkitpro/devkitarm/bin/../lib/gcc/arm-eabi/4.4.3/../../../../arm-eabi/lib/thumb\libg.a(lib_a-locale.o)
 .comment       0x00000000       0x23 c:/devkitpro/devkitarm/bin/../lib/gcc/arm-eabi/4.4.3/../../../../arm-eabi/lib/thumb\libg.a(lib_a-makebuf.o)
 .comment       0x00000000       0x23 c:/devkitpro/devkitarm/bin/../lib/gcc/arm-eabi/4.4.3/../../../../arm-eabi/lib/thumb\libg.a(lib_a-malloc.o)
 .comment       0x00000000       0x23 c:/devkitpro/devkitarm/bin/../lib/gcc/arm-eabi/4.4.3/../../../../arm-eabi/lib/thumb\libg.a(lib_a-mallocr.o)
 .comment       0x00000000       0x23 c:/devkitpro/devkitarm/bin/../lib/gcc/arm-eabi/4.4.3/../../../../arm-eabi/lib/thumb\libg.a(lib_a-mbrtowc.o)
 .comment       0x00000000       0x23 c:/devkitpro/devkitarm/bin/../lib/gcc/arm-eabi/4.4.3/../../../../arm-eabi/lib/thumb\libg.a(lib_a-mbsrtowcs.o)
 .comment       0x00000000       0x23 c:/devkitpro/devkitarm/bin/../lib/gcc/arm-eabi/4.4.3/../../../../arm-eabi/lib/thumb\libg.a(lib_a-mbtowc_r.o)
 .comment       0x00000000       0x23 c:/devkitpro/devkitarm/bin/../lib/gcc/arm-eabi/4.4.3/../../../../arm-eabi/lib/thumb\libg.a(lib_a-memcmp.o)
 .comment       0x00000000       0x23 c:/devkitpro/devkitarm/bin/../lib/gcc/arm-eabi/4.4.3/../../../../arm-eabi/lib/thumb\libg.a(lib_a-memcpy.o)
 .comment       0x00000000       0x23 c:/devkitpro/devkitarm/bin/../lib/gcc/arm-eabi/4.4.3/../../../../arm-eabi/lib/thumb\libg.a(lib_a-memmove.o)
 .comment       0x00000000       0x23 c:/devkitpro/devkitarm/bin/../lib/gcc/arm-eabi/4.4.3/../../../../arm-eabi/lib/thumb\libg.a(lib_a-memset.o)
 .comment       0x00000000       0x23 c:/devkitpro/devkitarm/bin/../lib/gcc/arm-eabi/4.4.3/../../../../arm-eabi/lib/thumb\libg.a(lib_a-mktime.o)
 .comment       0x00000000       0x23 c:/devkitpro/devkitarm/bin/../lib/gcc/arm-eabi/4.4.3/../../../../arm-eabi/lib/thumb\libg.a(lib_a-mktm_r.o)
 .comment       0x00000000       0x23 c:/devkitpro/devkitarm/bin/../lib/gcc/arm-eabi/4.4.3/../../../../arm-eabi/lib/thumb\libg.a(lib_a-mlock.o)
 .comment       0x00000000       0x23 c:/devkitpro/devkitarm/bin/../lib/gcc/arm-eabi/4.4.3/../../../../arm-eabi/lib/thumb\libg.a(lib_a-realloc.o)
 .comment       0x00000000       0x23 c:/devkitpro/devkitarm/bin/../lib/gcc/arm-eabi/4.4.3/../../../../arm-eabi/lib/thumb\libg.a(lib_a-reallocr.o)
 .comment       0x00000000       0x23 c:/devkitpro/devkitarm/bin/../lib/gcc/arm-eabi/4.4.3/../../../../arm-eabi/lib/thumb\libg.a(lib_a-refill.o)
 .comment       0x00000000       0x23 c:/devkitpro/devkitarm/bin/../lib/gcc/arm-eabi/4.4.3/../../../../arm-eabi/lib/thumb\libg.a(lib_a-rewind.o)
 .comment       0x00000000       0x23 c:/devkitpro/devkitarm/bin/../lib/gcc/arm-eabi/4.4.3/../../../../arm-eabi/lib/thumb\libg.a(lib_a-setvbuf.o)
 .comment       0x00000000       0x23 c:/devkitpro/devkitarm/bin/../lib/gcc/arm-eabi/4.4.3/../../../../arm-eabi/lib/thumb\libg.a(lib_a-siscanf.o)
 .comment       0x00000000       0x23 c:/devkitpro/devkitarm/bin/../lib/gcc/arm-eabi/4.4.3/../../../../arm-eabi/lib/thumb\libg.a(lib_a-snprintf.o)
 .comment       0x00000000       0x23 c:/devkitpro/devkitarm/bin/../lib/gcc/arm-eabi/4.4.3/../../../../arm-eabi/lib/thumb\libg.a(lib_a-sprintf.o)
 .comment       0x00000000       0x23 c:/devkitpro/devkitarm/bin/../lib/gcc/arm-eabi/4.4.3/../../../../arm-eabi/lib/thumb\libg.a(lib_a-stdio.o)
 .comment       0x00000000       0x23 c:/devkitpro/devkitarm/bin/../lib/gcc/arm-eabi/4.4.3/../../../../arm-eabi/lib/thumb\libg.a(lib_a-strcasecmp.o)
 .comment       0x00000000       0x23 c:/devkitpro/devkitarm/bin/../lib/gcc/arm-eabi/4.4.3/../../../../arm-eabi/lib/thumb\libg.a(lib_a-strcat.o)
 .comment       0x00000000       0x23 c:/devkitpro/devkitarm/bin/../lib/gcc/arm-eabi/4.4.3/../../../../arm-eabi/lib/thumb\libg.a(lib_a-strchr.o)
 .comment       0x00000000       0x23 c:/devkitpro/devkitarm/bin/../lib/gcc/arm-eabi/4.4.3/../../../../arm-eabi/lib/thumb\libg.a(lib_a-strcmp.o)
 .comment       0x00000000       0x23 c:/devkitpro/devkitarm/bin/../lib/gcc/arm-eabi/4.4.3/../../../../arm-eabi/lib/thumb\libg.a(lib_a-strcpy.o)
 .comment       0x00000000       0x23 c:/devkitpro/devkitarm/bin/../lib/gcc/arm-eabi/4.4.3/../../../../arm-eabi/lib/thumb\libg.a(lib_a-strlcpy.o)
 .comment       0x00000000       0x23 c:/devkitpro/devkitarm/bin/../lib/gcc/arm-eabi/4.4.3/../../../../arm-eabi/lib/thumb\libg.a(lib_a-strlen.o)
 .comment       0x00000000       0x23 c:/devkitpro/devkitarm/bin/../lib/gcc/arm-eabi/4.4.3/../../../../arm-eabi/lib/thumb\libg.a(lib_a-strncasecmp.o)
 .comment       0x00000000       0x23 c:/devkitpro/devkitarm/bin/../lib/gcc/arm-eabi/4.4.3/../../../../arm-eabi/lib/thumb\libg.a(lib_a-strncmp.o)
 .comment       0x00000000       0x23 c:/devkitpro/devkitarm/bin/../lib/gcc/arm-eabi/4.4.3/../../../../arm-eabi/lib/thumb\libg.a(lib_a-strncpy.o)
 .comment       0x00000000       0x23 c:/devkitpro/devkitarm/bin/../lib/gcc/arm-eabi/4.4.3/../../../../arm-eabi/lib/thumb\libg.a(lib_a-strnlen.o)
 .comment       0x00000000       0x23 c:/devkitpro/devkitarm/bin/../lib/gcc/arm-eabi/4.4.3/../../../../arm-eabi/lib/thumb\libg.a(lib_a-strpbrk.o)
 .comment       0x00000000       0x23 c:/devkitpro/devkitarm/bin/../lib/gcc/arm-eabi/4.4.3/../../../../arm-eabi/lib/thumb\libg.a(lib_a-strrchr.o)
 .comment       0x00000000       0x23 c:/devkitpro/devkitarm/bin/../lib/gcc/arm-eabi/4.4.3/../../../../arm-eabi/lib/thumb\libg.a(lib_a-strstr.o)
 .comment       0x00000000       0x23 c:/devkitpro/devkitarm/bin/../lib/gcc/arm-eabi/4.4.3/../../../../arm-eabi/lib/thumb\libg.a(lib_a-strtol.o)
 .comment       0x00000000       0x23 c:/devkitpro/devkitarm/bin/../lib/gcc/arm-eabi/4.4.3/../../../../arm-eabi/lib/thumb\libg.a(lib_a-strtoul.o)
 .comment       0x00000000       0x23 c:/devkitpro/devkitarm/bin/../lib/gcc/arm-eabi/4.4.3/../../../../arm-eabi/lib/thumb\libg.a(lib_a-svfiscanf.o)
 .comment       0x00000000       0x23 c:/devkitpro/devkitarm/bin/../lib/gcc/arm-eabi/4.4.3/../../../../arm-eabi/lib/thumb\libg.a(lib_a-svfprintf.o)
 .comment       0x00000000       0x23 c:/devkitpro/devkitarm/bin/../lib/gcc/arm-eabi/4.4.3/../../../../arm-eabi/lib/thumb\libg.a(lib_a-sysclose.o)
 .comment       0x00000000       0x23 c:/devkitpro/devkitarm/bin/../lib/gcc/arm-eabi/4.4.3/../../../../arm-eabi/lib/thumb\libg.a(lib_a-syslseek.o)
 .comment       0x00000000       0x23 c:/devkitpro/devkitarm/bin/../lib/gcc/arm-eabi/4.4.3/../../../../arm-eabi/lib/thumb\libg.a(lib_a-sysopen.o)
 .comment       0x00000000       0x23 c:/devkitpro/devkitarm/bin/../lib/gcc/arm-eabi/4.4.3/../../../../arm-eabi/lib/thumb\libg.a(lib_a-sysread.o)
 .comment       0x00000000       0x23 c:/devkitpro/devkitarm/bin/../lib/gcc/arm-eabi/4.4.3/../../../../arm-eabi/lib/thumb\libg.a(lib_a-sysstat.o)
 .comment       0x00000000       0x23 c:/devkitpro/devkitarm/bin/../lib/gcc/arm-eabi/4.4.3/../../../../arm-eabi/lib/thumb\libg.a(lib_a-time.o)
 .comment       0x00000000       0x23 c:/devkitpro/devkitarm/bin/../lib/gcc/arm-eabi/4.4.3/../../../../arm-eabi/lib/thumb\libg.a(lib_a-towlower.o)
 .comment       0x00000000       0x23 c:/devkitpro/devkitarm/bin/../lib/gcc/arm-eabi/4.4.3/../../../../arm-eabi/lib/thumb\libg.a(lib_a-towupper.o)
 .comment       0x00000000       0x23 c:/devkitpro/devkitarm/bin/../lib/gcc/arm-eabi/4.4.3/../../../../arm-eabi/lib/thumb\libg.a(lib_a-tzlock.o)
 .comment       0x00000000       0x23 c:/devkitpro/devkitarm/bin/../lib/gcc/arm-eabi/4.4.3/../../../../arm-eabi/lib/thumb\libg.a(lib_a-tzvars.o)
 .comment       0x00000000       0x23 c:/devkitpro/devkitarm/bin/../lib/gcc/arm-eabi/4.4.3/../../../../arm-eabi/lib/thumb\libg.a(lib_a-ungetc.o)
 .comment       0x00000000       0x23 c:/devkitpro/devkitarm/bin/../lib/gcc/arm-eabi/4.4.3/../../../../arm-eabi/lib/thumb\libg.a(lib_a-vfiprintf.o)
 .comment       0x00000000       0x23 c:/devkitpro/devkitarm/bin/../lib/gcc/arm-eabi/4.4.3/../../../../arm-eabi/lib/thumb\libg.a(lib_a-vfprintf.o)
 .comment       0x00000000       0x23 c:/devkitpro/devkitarm/bin/../lib/gcc/arm-eabi/4.4.3/../../../../arm-eabi/lib/thumb\libg.a(lib_a-wcrtomb.o)
 .comment       0x00000000       0x23 c:/devkitpro/devkitarm/bin/../lib/gcc/arm-eabi/4.4.3/../../../../arm-eabi/lib/thumb\libg.a(lib_a-wcsrtombs.o)
 .comment       0x00000000       0x23 c:/devkitpro/devkitarm/bin/../lib/gcc/arm-eabi/4.4.3/../../../../arm-eabi/lib/thumb\libg.a(lib_a-wctob.o)
 .comment       0x00000000       0x23 c:/devkitpro/devkitarm/bin/../lib/gcc/arm-eabi/4.4.3/../../../../arm-eabi/lib/thumb\libg.a(lib_a-wctomb_r.o)
 .comment       0x00000000       0x23 c:/devkitpro/devkitarm/bin/../lib/gcc/arm-eabi/4.4.3/../../../../arm-eabi/lib/thumb\libg.a(lib_a-wsetup.o)
 .comment       0x00000000       0x23 c:/devkitpro/devkitarm/bin/../lib/gcc/arm-eabi/4.4.3/../../../../arm-eabi/lib/thumb\libg.a(lib_a-ctype_.o)
 .comment       0x00000000       0x23 c:/devkitpro/devkitarm/bin/../lib/gcc/arm-eabi/4.4.3/../../../../arm-eabi/lib/thumb\libg.a(lib_a-div.o)
 .comment       0x00000000       0x23 c:/devkitpro/devkitarm/bin/../lib/gcc/arm-eabi/4.4.3/../../../../arm-eabi/lib/thumb\libg.a(lib_a-dtoa.o)
 .comment       0x00000000       0x23 c:/devkitpro/devkitarm/bin/../lib/gcc/arm-eabi/4.4.3/../../../../arm-eabi/lib/thumb\libg.a(lib_a-flags.o)
 .comment       0x00000000       0x23 c:/devkitpro/devkitarm/bin/../lib/gcc/arm-eabi/4.4.3/../../../../arm-eabi/lib/thumb\libg.a(lib_a-fputwc.o)
 .comment       0x00000000       0x23 c:/devkitpro/devkitarm/bin/../lib/gcc/arm-eabi/4.4.3/../../../../arm-eabi/lib/thumb\libg.a(lib_a-fvwrite.o)
 .comment       0x00000000       0x23 c:/devkitpro/devkitarm/bin/../lib/gcc/arm-eabi/4.4.3/../../../../arm-eabi/lib/thumb\libg.a(lib_a-getenv_r.o)
 .comment       0x00000000       0x23 c:/devkitpro/devkitarm/bin/../lib/gcc/arm-eabi/4.4.3/../../../../arm-eabi/lib/thumb\libg.a(lib_a-gettzinfo.o)
 .comment       0x00000000       0x23 c:/devkitpro/devkitarm/bin/../lib/gcc/arm-eabi/4.4.3/../../../../arm-eabi/lib/thumb\libg.a(lib_a-iswspace.o)
 .comment       0x00000000       0x23 c:/devkitpro/devkitarm/bin/../lib/gcc/arm-eabi/4.4.3/../../../../arm-eabi/lib/thumb\libg.a(lib_a-jp2uc.o)
 .comment       0x00000000       0x23 c:/devkitpro/devkitarm/bin/../lib/gcc/arm-eabi/4.4.3/../../../../arm-eabi/lib/thumb\libg.a(lib_a-mbsnrtowcs.o)
 .comment       0x00000000       0x23 c:/devkitpro/devkitarm/bin/../lib/gcc/arm-eabi/4.4.3/../../../../arm-eabi/lib/thumb\libg.a(lib_a-memchr.o)
 .comment       0x00000000       0x23 c:/devkitpro/devkitarm/bin/../lib/gcc/arm-eabi/4.4.3/../../../../arm-eabi/lib/thumb\libg.a(lib_a-mprec.o)
 .comment       0x00000000       0x23 c:/devkitpro/devkitarm/bin/../lib/gcc/arm-eabi/4.4.3/../../../../arm-eabi/lib/thumb\libg.a(lib_a-s_fpclassify.o)
 .comment       0x00000000       0x23 c:/devkitpro/devkitarm/bin/../lib/gcc/arm-eabi/4.4.3/../../../../arm-eabi/lib/thumb\libg.a(lib_a-sccl.o)
 .comment       0x00000000       0x23 c:/devkitpro/devkitarm/bin/../lib/gcc/arm-eabi/4.4.3/../../../../arm-eabi/lib/thumb\libg.a(lib_a-svfiprintf.o)
 .comment       0x00000000       0x23 c:/devkitpro/devkitarm/bin/../lib/gcc/arm-eabi/4.4.3/../../../../arm-eabi/lib/thumb\libg.a(lib_a-wbuf.o)
 .comment       0x00000000       0x23 c:/devkitpro/devkitarm/bin/../lib/gcc/arm-eabi/4.4.3/../../../../arm-eabi/lib/thumb\libg.a(lib_a-wcsnrtombs.o)
 .comment       0x00000000       0x23 c:/devkitpro/devkitarm/bin/../lib/gcc/arm-eabi/4.4.3/../../../../arm-eabi/lib/thumb\libg.a(lib_a-environ.o)
 .comment       0x00000000       0x23 c:/devkitpro/devkitarm/bin/../lib/gcc/arm-eabi/4.4.3/../../../../arm-eabi/lib/thumb\libg.a(lib_a-envlock.o)
 .comment       0x00000000       0x23 c:/devkitpro/devkitarm/bin/../lib/gcc/arm-eabi/4.4.3/../../../../arm-eabi/lib/thumb\libsysbase.a(iosupport.o)
 .comment       0x00000000       0x23 c:/devkitpro/devkitarm/bin/../lib/gcc/arm-eabi/4.4.3/../../../../arm-eabi/lib/thumb\libsysbase.a(close.o)
 .comment       0x00000000       0x23 c:/devkitpro/devkitarm/bin/../lib/gcc/arm-eabi/4.4.3/../../../../arm-eabi/lib/thumb\libsysbase.a(fstat.o)
 .comment       0x00000000       0x23 c:/devkitpro/devkitarm/bin/../lib/gcc/arm-eabi/4.4.3/../../../../arm-eabi/lib/thumb\libsysbase.a(isatty.o)
 .comment       0x00000000       0x23 c:/devkitpro/devkitarm/bin/../lib/gcc/arm-eabi/4.4.3/../../../../arm-eabi/lib/thumb\libsysbase.a(lseek.o)
 .comment       0x00000000       0x23 c:/devkitpro/devkitarm/bin/../lib/gcc/arm-eabi/4.4.3/../../../../arm-eabi/lib/thumb\libsysbase.a(open.o)
 .comment       0x00000000       0x23 c:/devkitpro/devkitarm/bin/../lib/gcc/arm-eabi/4.4.3/../../../../arm-eabi/lib/thumb\libsysbase.a(read.o)
 .comment       0x00000000       0x23 c:/devkitpro/devkitarm/bin/../lib/gcc/arm-eabi/4.4.3/../../../../arm-eabi/lib/thumb\libsysbase.a(sbrk.o)
 .comment       0x00000000       0x23 c:/devkitpro/devkitarm/bin/../lib/gcc/arm-eabi/4.4.3/../../../../arm-eabi/lib/thumb\libsysbase.a(stat.o)
 .comment       0x00000000       0x23 c:/devkitpro/devkitarm/bin/../lib/gcc/arm-eabi/4.4.3/../../../../arm-eabi/lib/thumb\libsysbase.a(times.o)
 .comment       0x00000000       0x23 c:/devkitpro/devkitarm/bin/../lib/gcc/arm-eabi/4.4.3/../../../../arm-eabi/lib/thumb\libsysbase.a(write.o)
 .comment       0x00000000       0x23 c:/devkitpro/devkitarm/bin/../lib/gcc/arm-eabi/4.4.3/../../../../arm-eabi/lib/thumb\libsysbase.a(malloc_vars.o)
 .comment       0x00000000       0x23 c:/devkitpro/devkitarm/bin/../lib/gcc/arm-eabi/4.4.3/../../../../arm-eabi/lib/thumb\libsysbase.a(chdir.o)
 .comment       0x00000000       0x23 c:/devkitpro/devkitarm/bin/../lib/gcc/arm-eabi/4.4.3/../../../../arm-eabi/lib/thumb\libsysbase.a(build_argv.o)
 .comment       0x00000000       0x23 c:/devkitpro/devkitarm/bin/../lib/gcc/arm-eabi/4.4.3/../../../../arm-eabi/lib/thumb\libsysbase.a(syscall_support.o)
 .comment       0x00000000       0x23 c:/devkitpro/devkitarm/bin/../lib/gcc/arm-eabi/4.4.3/../../../../arm-eabi/lib/thumb\libsysbase.a(handle_manager.o)
 .comment       0x00000000       0x23 c:/devkitpro/devkitarm/bin/../lib/gcc/arm-eabi/4.4.3/../../../../arm-eabi/lib/thumb\libsysbase.a(dirent.o)
 .comment       0x00000000       0x23 c:/devkitpro/devkitarm/bin/../lib/gcc/arm-eabi/4.4.3/../../../../arm-eabi/lib/thumb\libsysbase.a(dir.o)
 .comment       0x00000000       0x23 c:/devkitpro/devkitarm/bin/../lib/gcc/arm-eabi/4.4.3/thumb/crtend.o

.debug
 *(.debug)

.line
 *(.line)

.debug_srcinfo
 *(.debug_srcinfo)

.debug_sfnames
 *(.debug_sfnames)

.debug_aranges  0x00000000      0x960 load address 0x02232870
 *(.debug_aranges)
 .debug_aranges
                0x00000000       0x20 ky_geturl.o
 .debug_aranges
                0x00000020       0x20 main.o
 .debug_aranges
                0x00000040       0x20 c:/devkitPro/PAlib/lib\libpa9.a(PA_BgTiles.o)
 .debug_aranges
                0x00000060       0x20 c:/devkitPro/PAlib/lib\libpa9.a(PA.o)
 .debug_aranges
                0x00000080       0x20 c:/devkitPro/PAlib/lib\libpa9.a(PA_Draw8bit.o)
 .debug_aranges
                0x000000a0       0x20 c:/devkitPro/PAlib/lib\libpa9.a(PA_Draw.o)
 .debug_aranges
                0x000000c0       0x20 c:/devkitPro/PAlib/lib\libpa9.a(PA_Error.o)
 .debug_aranges
                0x000000e0       0x20 c:/devkitPro/PAlib/lib\libpa9.a(PA_Gif.o)
 .debug_aranges
                0x00000100       0x20 c:/devkitPro/PAlib/lib\libpa9.a(PA_Inits.o)
 .debug_aranges
                0x00000120       0x20 c:/devkitPro/PAlib/lib\libpa9.a(PA_Interrupt.o)
 .debug_aranges
                0x00000140       0x20 c:/devkitPro/PAlib/lib\libpa9.a(PA_Keys.o)
 .debug_aranges
                0x00000160       0x20 c:/devkitPro/PAlib/lib\libpa9.a(PA_Math.o)
 .debug_aranges
                0x00000180       0x20 c:/devkitPro/PAlib/lib\libpa9.a(PA_NewBg.o)
 .debug_aranges
                0x000001a0       0x20 c:/devkitPro/PAlib/lib\libpa9.a(PA_Palette.o)
 .debug_aranges
                0x000001c0       0x20 c:/devkitPro/PAlib/lib\libpa9.a(PA_Reco.o)
 .debug_aranges
                0x000001e0       0x20 c:/devkitPro/PAlib/lib\libpa9.a(PA_RTC.o)
 .debug_aranges
                0x00000200       0x20 c:/devkitPro/PAlib/lib\libpa9.a(PA_SpriteAnim.o)
 .debug_aranges
                0x00000220       0x20 c:/devkitPro/PAlib/lib\libpa9.a(PA_Sprite.o)
 .debug_aranges
                0x00000240       0x20 c:/devkitPro/PAlib/lib\libpa9.a(PA_Stuff.o)
 .debug_aranges
                0x00000260       0x20 c:/devkitPro/PAlib/lib\libpa9.a(PA_Text8bit.o)
 .debug_aranges
                0x00000280       0x20 c:/devkitPro/PAlib/lib\libpa9.a(PA_TextBits.o)
 .debug_aranges
                0x000002a0       0x20 c:/devkitPro/PAlib/lib\libpa9.a(PA_Text.o)
 .debug_aranges
                0x000002c0       0x20 c:/devkitPro/PAlib/lib\libpa9.a(dgif_lib.o)
 .debug_aranges
                0x000002e0       0x20 c:/devkitPro/PAlib/lib\libpa9.a(gifalloc.o)
 .debug_aranges
                0x00000300       0x20 c:/devkitPro/PAlib/lib\libpa9.a(gif_err.o)
 .debug_aranges
                0x00000320       0x20 c:/devkitPro/PAlib/lib\libpa9.a(PA_16c.o)
 .debug_aranges
                0x00000340       0x20 c:/devkitPro/PAlib/lib\libpa9.a(PA_BgEasy.o)
 .debug_aranges
                0x00000360       0x20 c:/devkitPro/PAlib/lib\libpa9.a(PA_BgLargeMap.o)
 .debug_aranges
                0x00000380       0x20 c:/devkitPro/PAlib/lib\libpa9.a(PA_BgRot.o)
 .debug_aranges
                0x000003a0       0x20 c:/devkitPro/PAlib/lib\libpa9.a(PA_Fifo.o)
 .debug_aranges
                0x000003c0       0x20 c:/devkitPro/PAlib/lib\libpa9.a(PA_Keyboard.o)
 .debug_aranges
                0x000003e0       0x20 c:/devkitPro/PAlib/lib\libpa9.a(PA_PaletteEx.o)
 .debug_aranges
                0x00000400       0x20 c:/devkitPro/libnds/lib\libfat.a(libfat.o)
 .debug_aranges
                0x00000420       0x20 c:/devkitPro/libnds/lib\libfat.a(partition.o)
 .debug_aranges
                0x00000440       0x20 c:/devkitPro/libnds/lib\libfat.a(cache.o)
 .debug_aranges
                0x00000460       0x20 c:/devkitPro/libnds/lib\libfat.a(directory.o)
 .debug_aranges
                0x00000480       0x20 c:/devkitPro/libnds/lib\libfat.a(fatdir.o)
 .debug_aranges
                0x000004a0       0x20 c:/devkitPro/libnds/lib\libfat.a(fatfile.o)
 .debug_aranges
                0x000004c0       0x20 c:/devkitPro/libnds/lib\libfat.a(file_allocation_table.o)
 .debug_aranges
                0x000004e0       0x20 c:/devkitPro/libnds/lib\libfat.a(filetime.o)
 .debug_aranges
                0x00000500       0x20 c:/devkitPro/libnds/lib\libnds9.a(gurumeditation.o)
 .debug_aranges
                0x00000520       0x20 c:/devkitPro/libnds/lib\libnds9.a(keys.o)
 .debug_aranges
                0x00000540       0x20 c:/devkitPro/libnds/lib\libnds9.a(system.o)
 .debug_aranges
                0x00000560       0x20 c:/devkitPro/libnds/lib\libnds9.a(touch.o)
 .debug_aranges
                0x00000580       0x20 c:/devkitPro/libnds/lib\libnds9.a(video.o)
 .debug_aranges
                0x000005a0       0x20 c:/devkitPro/libnds/lib\libnds9.a(dldi.o)
 .debug_aranges
                0x000005c0       0x20 c:/devkitPro/libnds/lib\libnds9.a(initSystem.o)
 .debug_aranges
                0x000005e0       0x20 c:/devkitPro/libnds/lib\libnds9.a(fifosystem.o)
 .debug_aranges
                0x00000600       0x20 c:/devkitPro/libnds/lib\libnds9.a(interrupts.o)
 .debug_aranges
                0x00000620       0x20 c:/devkitPro/libnds/lib\libnds9.a(libnds_exit.o)
 .debug_aranges
                0x00000640       0x20 c:/devkitPro/libnds/lib\libnds9.a(dcache.o)
 .debug_aranges
                0x00000660       0x20 c:/devkitPro/libnds/lib\libnds9.a(exceptionHandler.o)
 .debug_aranges
                0x00000680       0x20 c:/devkitPro/libnds/lib\libnds9.a(dldi_stub.o)
 .debug_aranges
                0x000006a0       0x20 c:/devkitPro/libnds/lib\libnds9.a(mpu_setup.o)
 .debug_aranges
                0x000006c0       0x20 c:/devkitPro/libnds/lib\libnds9.a(biosCalls.o)
 .debug_aranges
                0x000006e0       0x20 c:/devkitPro/libnds/lib\libnds9.a(interruptDispatcher.o)
 .debug_aranges
                0x00000700       0x20 c:/devkitPro/libnds/lib\libnds9.a(swiSoftReset.o)
 .debug_aranges
                0x00000720       0x20 c:/devkitPro/libnds/lib\libnds9.a(console.o)
 .debug_aranges
                0x00000740       0x20 c:/devkitPro/libnds/lib\libnds9.a(exceptions.o)
 .debug_aranges
                0x00000760       0x20 c:/devkitPro/libnds/lib\libnds9.a(debugprint.o)
 .debug_aranges
                0x00000780       0x20 c:/devkitPro/libnds/lib\libnds9.a(background.o)
 .debug_aranges
                0x000007a0       0x20 c:/devkitPro/libnds/lib\libnds9.a(trig.o)
 .debug_aranges
                0x000007c0       0x20 c:/devkitPro/libnds/lib\libdswifi9.a(sgIP_Hub.o)
 .debug_aranges
                0x000007e0       0x20 c:/devkitPro/libnds/lib\libdswifi9.a(sgIP_memblock.o)
 .debug_aranges
                0x00000800       0x20 c:/devkitPro/libnds/lib\libdswifi9.a(sgIP_sockets.o)
 .debug_aranges
                0x00000820       0x20 c:/devkitPro/libnds/lib\libdswifi9.a(wifi_arm9.o)
 .debug_aranges
                0x00000840       0x20 c:/devkitPro/libnds/lib\libdswifi9.a(spinlock.o)
 .debug_aranges
                0x00000860       0x20 c:/devkitPro/libnds/lib\libdswifi9.a(sgIP.o)
 .debug_aranges
                0x00000880       0x20 c:/devkitPro/libnds/lib\libdswifi9.a(sgIP_ARP.o)
 .debug_aranges
                0x000008a0       0x20 c:/devkitPro/libnds/lib\libdswifi9.a(sgIP_DHCP.o)
 .debug_aranges
                0x000008c0       0x20 c:/devkitPro/libnds/lib\libdswifi9.a(sgIP_DNS.o)
 .debug_aranges
                0x000008e0       0x20 c:/devkitPro/libnds/lib\libdswifi9.a(sgIP_IP.o)
 .debug_aranges
                0x00000900       0x20 c:/devkitPro/libnds/lib\libdswifi9.a(sgIP_TCP.o)
 .debug_aranges
                0x00000920       0x20 c:/devkitPro/libnds/lib\libdswifi9.a(sgIP_UDP.o)
 .debug_aranges
                0x00000940       0x20 c:/devkitPro/libnds/lib\libdswifi9.a(sgIP_ICMP.o)

.debug_pubnames
                0x00000000     0x42a1 load address 0x02232870
 *(.debug_pubnames)
 .debug_pubnames
                0x00000000      0x13c ky_geturl.o
 .debug_pubnames
                0x0000013c      0x521 main.o
 .debug_pubnames
                0x0000065d       0x22 BG2_bas_alg.o
 .debug_pubnames
                0x0000067f       0x27 BG2_bas_amazonia.o
 .debug_pubnames
                0x000006a6       0x22 BG2_bas_arg.o
 .debug_pubnames
                0x000006c8       0x22 BG2_bas_aus.o
 .debug_pubnames
                0x000006ea       0x26 BG2_bas_baixada.o
 .debug_pubnames
                0x00000710       0x27 BG2_bas_beirario.o
 .debug_pubnames
                0x00000737       0x22 BG2_bas_bel.o
 .debug_pubnames
                0x00000759       0x22 BG2_bas_bih.o
 .debug_pubnames
                0x0000077b       0x22 BG2_bas_bra.o
 .debug_pubnames
                0x0000079d       0x27 BG2_bas_castelao.o
 .debug_pubnames
                0x000007c4       0x22 BG2_bas_chi.o
 .debug_pubnames
                0x000007e6       0x22 BG2_bas_civ.o
 .debug_pubnames
                0x00000808       0x22 BG2_bas_cmr.o
 .debug_pubnames
                0x0000082a       0x22 BG2_bas_col.o
 .debug_pubnames
                0x0000084c       0x22 BG2_bas_crc.o
 .debug_pubnames
                0x0000086e       0x22 BG2_bas_cro.o
 .debug_pubnames
                0x00000890       0x27 BG2_bas_dasdunas.o
 .debug_pubnames
                0x000008b7       0x22 BG2_bas_ecu.o
 .debug_pubnames
                0x000008d9       0x22 BG2_bas_eng.o
 .debug_pubnames
                0x000008fb       0x22 BG2_bas_esp.o
 .debug_pubnames
                0x0000091d       0x28 BG2_bas_fontenova.o
 .debug_pubnames
                0x00000945       0x22 BG2_bas_fra.o
 .debug_pubnames
                0x00000967       0x22 BG2_bas_ger.o
 .debug_pubnames
                0x00000989       0x22 BG2_bas_gha.o
 .debug_pubnames
                0x000009ab       0x22 BG2_bas_gre.o
 .debug_pubnames
                0x000009cd       0x22 BG2_bas_hon.o
 .debug_pubnames
                0x000009ef       0x22 BG2_bas_irn.o
 .debug_pubnames
                0x00000a11       0x22 BG2_bas_ita.o
 .debug_pubnames
                0x00000a33       0x22 BG2_bas_jpn.o
 .debug_pubnames
                0x00000a55       0x22 BG2_bas_kor.o
 .debug_pubnames
                0x00000a77       0x27 BG2_bas_maracana.o
 .debug_pubnames
                0x00000a9e       0x22 BG2_bas_mex.o
 .debug_pubnames
                0x00000ac0       0x27 BG2_bas_mineirao.o
 .debug_pubnames
                0x00000ae7       0x27 BG2_bas_nacional.o
 .debug_pubnames
                0x00000b0e       0x22 BG2_bas_ned.o
 .debug_pubnames
                0x00000b30       0x22 BG2_bas_nga.o
 .debug_pubnames
                0x00000b52       0x27 BG2_bas_pantanal.o
 .debug_pubnames
                0x00000b79       0x29 BG2_bas_pernambuco.o
 .debug_pubnames
                0x00000ba2       0x22 BG2_bas_por.o
 .debug_pubnames
                0x00000bc4       0x22 BG2_bas_rus.o
 .debug_pubnames
                0x00000be6       0x27 BG2_bas_saopaulo.o
 .debug_pubnames
                0x00000c0d       0x28 BG2_bas_selection.o
 .debug_pubnames
                0x00000c35       0x22 BG2_bas_sui.o
 .debug_pubnames
                0x00000c57       0x22 BG2_bas_uru.o
 .debug_pubnames
                0x00000c79       0x22 BG2_bas_usa.o
 .debug_pubnames
                0x00000c9b       0x1e newfont.o
 .debug_pubnames
                0x00000cb9      0x12e c:/devkitPro/PAlib/lib\libpa9.a(PA_BgTiles.o)
 .debug_pubnames
                0x00000de7       0xfe c:/devkitPro/PAlib/lib\libpa9.a(PA.o)
 .debug_pubnames
                0x00000ee5       0x90 c:/devkitPro/PAlib/lib\libpa9.a(PA_Draw8bit.o)
 .debug_pubnames
                0x00000f75       0xa9 c:/devkitPro/PAlib/lib\libpa9.a(PA_Draw.o)
 .debug_pubnames
                0x0000101e       0x2e c:/devkitPro/PAlib/lib\libpa9.a(PA_Error.o)
 .debug_pubnames
                0x0000104c       0xe9 c:/devkitPro/PAlib/lib\libpa9.a(PA_Gif.o)
 .debug_pubnames
                0x00001135       0x39 c:/devkitPro/PAlib/lib\libpa9.a(PA_Inits.o)
 .debug_pubnames
                0x0000116e       0xa4 c:/devkitPro/PAlib/lib\libpa9.a(PA_Interrupt.o)
 .debug_pubnames
                0x00001212       0x47 c:/devkitPro/PAlib/lib\libpa9.a(PA_Keys.o)
 .debug_pubnames
                0x00001259       0x40 c:/devkitPro/PAlib/lib\libpa9.a(PA_Math.o)
 .debug_pubnames
                0x00001299       0x73 c:/devkitPro/PAlib/lib\libpa9.a(PA_NewBg.o)
 .debug_pubnames
                0x0000130c       0x76 c:/devkitPro/PAlib/lib\libpa9.a(PA_Palette.o)
 .debug_pubnames
                0x00001382       0xd1 c:/devkitPro/PAlib/lib\libpa9.a(PA_Reco.o)
 .debug_pubnames
                0x00001453       0x54 c:/devkitPro/PAlib/lib\libpa9.a(PA_RTC.o)
 .debug_pubnames
                0x000014a7       0x44 c:/devkitPro/PAlib/lib\libpa9.a(PA_SpriteAnim.o)
 .debug_pubnames
                0x000014eb      0x1d6 c:/devkitPro/PAlib/lib\libpa9.a(PA_Sprite.o)
 .debug_pubnames
                0x000016c1       0x34 c:/devkitPro/PAlib/lib\libpa9.a(PA_Stuff.o)
 .debug_pubnames
                0x000016f5       0xb4 c:/devkitPro/PAlib/lib\libpa9.a(PA_Text8bit.o)
 .debug_pubnames
                0x000017a9       0xc4 c:/devkitPro/PAlib/lib\libpa9.a(PA_TextBits.o)
 .debug_pubnames
                0x0000186d      0x11c c:/devkitPro/PAlib/lib\libpa9.a(PA_Text.o)
 .debug_pubnames
                0x00001989      0x132 c:/devkitPro/PAlib/lib\libpa9.a(dgif_lib.o)
 .debug_pubnames
                0x00001abb       0xe1 c:/devkitPro/PAlib/lib\libpa9.a(gifalloc.o)
 .debug_pubnames
                0x00001b9c       0x43 c:/devkitPro/PAlib/lib\libpa9.a(gif_err.o)
 .debug_pubnames
                0x00001bdf       0x23 c:/devkitPro/PAlib/lib\libpa9.a(PA_TiledFont.o)
 .debug_pubnames
                0x00001c02       0x22 c:/devkitPro/PAlib/lib\libpa9.a(PA_BmpFont0.o)
 .debug_pubnames
                0x00001c24       0x22 c:/devkitPro/PAlib/lib\libpa9.a(PA_BmpFont1.o)
 .debug_pubnames
                0x00001c46       0x22 c:/devkitPro/PAlib/lib\libpa9.a(PA_BmpFont2.o)
 .debug_pubnames
                0x00001c68       0x22 c:/devkitPro/PAlib/lib\libpa9.a(PA_BmpFont3.o)
 .debug_pubnames
                0x00001c8a       0x22 c:/devkitPro/PAlib/lib\libpa9.a(PA_BmpFont4.o)
 .debug_pubnames
                0x00001cac       0xb0 c:/devkitPro/PAlib/lib\libpa9.a(PA_16c.o)
 .debug_pubnames
                0x00001d5c       0x68 c:/devkitPro/PAlib/lib\libpa9.a(PA_BgEasy.o)
 .debug_pubnames
                0x00001dc4       0xdf c:/devkitPro/PAlib/lib\libpa9.a(PA_BgLargeMap.o)
 .debug_pubnames
                0x00001ea3       0x55 c:/devkitPro/PAlib/lib\libpa9.a(PA_BgRot.o)
 .debug_pubnames
                0x00001ef8       0x38 c:/devkitPro/PAlib/lib\libpa9.a(PA_Fifo.o)
 .debug_pubnames
                0x00001f30       0xc0 c:/devkitPro/PAlib/lib\libpa9.a(PA_Keyboard.o)
 .debug_pubnames
                0x00001ff0       0x88 c:/devkitPro/PAlib/lib\libpa9.a(PA_PaletteEx.o)
 .debug_pubnames
                0x00002078       0x23 c:/devkitPro/PAlib/lib\libpa9.a(keyboard.map.o)
 .debug_pubnames
                0x0000209b       0x27 c:/devkitPro/PAlib/lib\libpa9.a(keyboard.pal.o)
 .debug_pubnames
                0x000020c2       0x25 c:/devkitPro/PAlib/lib\libpa9.a(keyboard.raw.o)
 .debug_pubnames
                0x000020e7       0x76 c:/devkitPro/libnds/lib\libfat.a(libfat.o)
 .debug_pubnames
                0x0000215d       0xa3 c:/devkitPro/libnds/lib\libfat.a(partition.o)
 .debug_pubnames
                0x00002200      0x162 c:/devkitPro/libnds/lib\libfat.a(cache.o)
 .debug_pubnames
                0x00002362      0x16f c:/devkitPro/libnds/lib\libfat.a(directory.o)
 .debug_pubnames
                0x000024d1       0x2b c:/devkitPro/libnds/lib\libfat.a(disc.o)
 .debug_pubnames
                0x000024fc       0xd9 c:/devkitPro/libnds/lib\libfat.a(fatdir.o)
 .debug_pubnames
                0x000025d5       0xaf c:/devkitPro/libnds/lib\libfat.a(fatfile.o)
 .debug_pubnames
                0x00002684       0xd2 c:/devkitPro/libnds/lib\libfat.a(file_allocation_table.o)
 .debug_pubnames
                0x00002756       0x70 c:/devkitPro/libnds/lib\libfat.a(filetime.o)
 .debug_pubnames
                0x000027c6       0x6a c:/devkitPro/libnds/lib\libnds9.a(gurumeditation.o)
 .debug_pubnames
                0x00002830       0x79 c:/devkitPro/libnds/lib\libnds9.a(keys.o)
 .debug_pubnames
                0x000028a9       0x73 c:/devkitPro/libnds/lib\libnds9.a(system.o)
 .debug_pubnames
                0x0000291c       0x30 c:/devkitPro/libnds/lib\libnds9.a(touch.o)
 .debug_pubnames
                0x0000294c       0x52 c:/devkitPro/libnds/lib\libnds9.a(video.o)
 .debug_pubnames
                0x0000299e       0xba c:/devkitPro/libnds/lib\libnds9.a(dldi.o)
 .debug_pubnames
                0x00002a58       0x21 c:/devkitPro/libnds/lib\libnds9.a(initSystem.o)
 .debug_pubnames
                0x00002a79      0x259 c:/devkitPro/libnds/lib\libnds9.a(fifosystem.o)
 .debug_pubnames
                0x00002cd2       0x80 c:/devkitPro/libnds/lib\libnds9.a(interrupts.o)
 .debug_pubnames
                0x00002d52       0x38 c:/devkitPro/libnds/lib\libnds9.a(libnds_exit.o)
 .debug_pubnames
                0x00002d8a      0x12a c:/devkitPro/libnds/lib\libnds9.a(console.o)
 .debug_pubnames
                0x00002eb4       0x2a c:/devkitPro/libnds/lib\libnds9.a(exceptions.o)
 .debug_pubnames
                0x00002ede       0xab c:/devkitPro/libnds/lib\libnds9.a(background.o)
 .debug_pubnames
                0x00002f89       0x99 c:/devkitPro/libnds/lib\libnds9.a(trig.o)
 .debug_pubnames
                0x00003022      0x1d6 c:/devkitPro/libnds/lib\libdswifi9.a(sgIP_Hub.o)
 .debug_pubnames
                0x000031f8      0x125 c:/devkitPro/libnds/lib\libdswifi9.a(sgIP_memblock.o)
 .debug_pubnames
                0x0000331d      0x13a c:/devkitPro/libnds/lib\libdswifi9.a(sgIP_sockets.o)
 .debug_pubnames
                0x00003457      0x45e c:/devkitPro/libnds/lib\libdswifi9.a(wifi_arm9.o)
 .debug_pubnames
                0x000038b5       0x6f c:/devkitPro/libnds/lib\libdswifi9.a(sgIP.o)
 .debug_pubnames
                0x00003924      0x170 c:/devkitPro/libnds/lib\libdswifi9.a(sgIP_ARP.o)
 .debug_pubnames
                0x00003a94      0x216 c:/devkitPro/libnds/lib\libdswifi9.a(sgIP_DHCP.o)
 .debug_pubnames
                0x00003caa      0x1db c:/devkitPro/libnds/lib\libdswifi9.a(sgIP_DNS.o)
 .debug_pubnames
                0x00003e85       0xaa c:/devkitPro/libnds/lib\libdswifi9.a(sgIP_IP.o)
 .debug_pubnames
                0x00003f2f      0x20d c:/devkitPro/libnds/lib\libdswifi9.a(sgIP_TCP.o)
 .debug_pubnames
                0x0000413c      0x124 c:/devkitPro/libnds/lib\libdswifi9.a(sgIP_UDP.o)
 .debug_pubnames
                0x00004260       0x41 c:/devkitPro/libnds/lib\libdswifi9.a(sgIP_ICMP.o)

.debug_info     0x00000000    0x672ee load address 0x02232870
 *(.debug_info)
 .debug_info    0x00000000     0x230c ky_geturl.o
 .debug_info    0x0000230c     0xe727 main.o
 .debug_info    0x00010a33      0x190 BG2_bas_alg.o
 .debug_info    0x00010bc3      0x190 BG2_bas_amazonia.o
 .debug_info    0x00010d53      0x190 BG2_bas_arg.o
 .debug_info    0x00010ee3      0x190 BG2_bas_aus.o
 .debug_info    0x00011073      0x190 BG2_bas_baixada.o
 .debug_info    0x00011203      0x190 BG2_bas_beirario.o
 .debug_info    0x00011393      0x190 BG2_bas_bel.o
 .debug_info    0x00011523      0x190 BG2_bas_bih.o
 .debug_info    0x000116b3      0x190 BG2_bas_bra.o
 .debug_info    0x00011843      0x190 BG2_bas_castelao.o
 .debug_info    0x000119d3      0x190 BG2_bas_chi.o
 .debug_info    0x00011b63      0x190 BG2_bas_civ.o
 .debug_info    0x00011cf3      0x190 BG2_bas_cmr.o
 .debug_info    0x00011e83      0x190 BG2_bas_col.o
 .debug_info    0x00012013      0x190 BG2_bas_crc.o
 .debug_info    0x000121a3      0x190 BG2_bas_cro.o
 .debug_info    0x00012333      0x190 BG2_bas_dasdunas.o
 .debug_info    0x000124c3      0x190 BG2_bas_ecu.o
 .debug_info    0x00012653      0x190 BG2_bas_eng.o
 .debug_info    0x000127e3      0x190 BG2_bas_esp.o
 .debug_info    0x00012973      0x190 BG2_bas_fontenova.o
 .debug_info    0x00012b03      0x190 BG2_bas_fra.o
 .debug_info    0x00012c93      0x190 BG2_bas_ger.o
 .debug_info    0x00012e23      0x190 BG2_bas_gha.o
 .debug_info    0x00012fb3      0x190 BG2_bas_gre.o
 .debug_info    0x00013143      0x190 BG2_bas_hon.o
 .debug_info    0x000132d3      0x190 BG2_bas_irn.o
 .debug_info    0x00013463      0x190 BG2_bas_ita.o
 .debug_info    0x000135f3      0x190 BG2_bas_jpn.o
 .debug_info    0x00013783      0x190 BG2_bas_kor.o
 .debug_info    0x00013913      0x190 BG2_bas_maracana.o
 .debug_info    0x00013aa3      0x190 BG2_bas_mex.o
 .debug_info    0x00013c33      0x190 BG2_bas_mineirao.o
 .debug_info    0x00013dc3      0x190 BG2_bas_nacional.o
 .debug_info    0x00013f53      0x190 BG2_bas_ned.o
 .debug_info    0x000140e3      0x190 BG2_bas_nga.o
 .debug_info    0x00014273      0x190 BG2_bas_pantanal.o
 .debug_info    0x00014403      0x190 BG2_bas_pernambuco.o
 .debug_info    0x00014593      0x190 BG2_bas_por.o
 .debug_info    0x00014723      0x190 BG2_bas_rus.o
 .debug_info    0x000148b3      0x190 BG2_bas_saopaulo.o
 .debug_info    0x00014a43      0x190 BG2_bas_selection.o
 .debug_info    0x00014bd3      0x190 BG2_bas_sui.o
 .debug_info    0x00014d63      0x190 BG2_bas_uru.o
 .debug_info    0x00014ef3      0x190 BG2_bas_usa.o
 .debug_info    0x00015083      0x190 newfont.o
 .debug_info    0x00015213     0x215d c:/devkitPro/PAlib/lib\libpa9.a(PA_BgTiles.o)
 .debug_info    0x00017370     0x2075 c:/devkitPro/PAlib/lib\libpa9.a(PA.o)
 .debug_info    0x000193e5     0x1eb6 c:/devkitPro/PAlib/lib\libpa9.a(PA_Draw8bit.o)
 .debug_info    0x0001b29b     0x1e07 c:/devkitPro/PAlib/lib\libpa9.a(PA_Draw.o)
 .debug_info    0x0001d0a2     0x1ae2 c:/devkitPro/PAlib/lib\libpa9.a(PA_Error.o)
 .debug_info    0x0001eb84     0x222d c:/devkitPro/PAlib/lib\libpa9.a(PA_Gif.o)
 .debug_info    0x00020db1     0x2572 c:/devkitPro/PAlib/lib\libpa9.a(PA_Inits.o)
 .debug_info    0x00023323     0x1c96 c:/devkitPro/PAlib/lib\libpa9.a(PA_Interrupt.o)
 .debug_info    0x00024fb9     0x1d39 c:/devkitPro/PAlib/lib\libpa9.a(PA_Keys.o)
 .debug_info    0x00026cf2     0x1ca3 c:/devkitPro/PAlib/lib\libpa9.a(PA_Math.o)
 .debug_info    0x00028995     0x232c c:/devkitPro/PAlib/lib\libpa9.a(PA_NewBg.o)
 .debug_info    0x0002acc1     0x2003 c:/devkitPro/PAlib/lib\libpa9.a(PA_Palette.o)
 .debug_info    0x0002ccc4     0x1fbb c:/devkitPro/PAlib/lib\libpa9.a(PA_Reco.o)
 .debug_info    0x0002ec7f     0x1ee6 c:/devkitPro/PAlib/lib\libpa9.a(PA_RTC.o)
 .debug_info    0x00030b65     0x1d40 c:/devkitPro/PAlib/lib\libpa9.a(PA_SpriteAnim.o)
 .debug_info    0x000328a5     0x20a9 c:/devkitPro/PAlib/lib\libpa9.a(PA_Sprite.o)
 .debug_info    0x0003494e     0x1d9b c:/devkitPro/PAlib/lib\libpa9.a(PA_Stuff.o)
 .debug_info    0x000366e9     0x2d35 c:/devkitPro/PAlib/lib\libpa9.a(PA_Text8bit.o)
 .debug_info    0x0003941e     0x1f33 c:/devkitPro/PAlib/lib\libpa9.a(PA_TextBits.o)
 .debug_info    0x0003b351     0x2069 c:/devkitPro/PAlib/lib\libpa9.a(PA_Text.o)
 .debug_info    0x0003d3ba     0x1747 c:/devkitPro/PAlib/lib\libpa9.a(dgif_lib.o)
 .debug_info    0x0003eb01      0x6e9 c:/devkitPro/PAlib/lib\libpa9.a(gifalloc.o)
 .debug_info    0x0003f1ea      0x99a c:/devkitPro/PAlib/lib\libpa9.a(gif_err.o)
 .debug_info    0x0003fb84      0x190 c:/devkitPro/PAlib/lib\libpa9.a(PA_TiledFont.o)
 .debug_info    0x0003fd14      0x190 c:/devkitPro/PAlib/lib\libpa9.a(PA_BmpFont0.o)
 .debug_info    0x0003fea4      0x190 c:/devkitPro/PAlib/lib\libpa9.a(PA_BmpFont1.o)
 .debug_info    0x00040034      0x190 c:/devkitPro/PAlib/lib\libpa9.a(PA_BmpFont2.o)
 .debug_info    0x000401c4      0x190 c:/devkitPro/PAlib/lib\libpa9.a(PA_BmpFont3.o)
 .debug_info    0x00040354      0x190 c:/devkitPro/PAlib/lib\libpa9.a(PA_BmpFont4.o)
 .debug_info    0x000404e4     0x227f c:/devkitPro/PAlib/lib\libpa9.a(PA_16c.o)
 .debug_info    0x00042763     0x1fb1 c:/devkitPro/PAlib/lib\libpa9.a(PA_BgEasy.o)
 .debug_info    0x00044714     0x27f5 c:/devkitPro/PAlib/lib\libpa9.a(PA_BgLargeMap.o)
 .debug_info    0x00046f09     0x1c30 c:/devkitPro/PAlib/lib\libpa9.a(PA_BgRot.o)
 .debug_info    0x00048b39     0x1d11 c:/devkitPro/PAlib/lib\libpa9.a(PA_Fifo.o)
 .debug_info    0x0004a84a     0x203d c:/devkitPro/PAlib/lib\libpa9.a(PA_Keyboard.o)
 .debug_info    0x0004c887     0x1f5b c:/devkitPro/PAlib/lib\libpa9.a(PA_PaletteEx.o)
 .debug_info    0x0004e7e2       0x54 c:/devkitPro/PAlib/lib\libpa9.a(keyboard.map.o)
 .debug_info    0x0004e836       0x53 c:/devkitPro/PAlib/lib\libpa9.a(keyboard.pal.o)
 .debug_info    0x0004e889       0x54 c:/devkitPro/PAlib/lib\libpa9.a(keyboard.raw.o)
 .debug_info    0x0004e8dd     0x1847 c:/devkitPro/libnds/lib\libfat.a(libfat.o)
 .debug_info    0x00050124     0x1a59 c:/devkitPro/libnds/lib\libfat.a(partition.o)
 .debug_info    0x00051b7d      0xcb1 c:/devkitPro/libnds/lib\libfat.a(cache.o)
 .debug_info    0x0005282e     0x17c7 c:/devkitPro/libnds/lib\libfat.a(directory.o)
 .debug_info    0x00053ff5      0x247 c:/devkitPro/libnds/lib\libfat.a(disc.o)
 .debug_info    0x0005423c     0x1900 c:/devkitPro/libnds/lib\libfat.a(fatdir.o)
 .debug_info    0x00055b3c     0x1df4 c:/devkitPro/libnds/lib\libfat.a(fatfile.o)
 .debug_info    0x00057930      0x7e2 c:/devkitPro/libnds/lib\libfat.a(file_allocation_table.o)
 .debug_info    0x00058112      0x1d6 c:/devkitPro/libnds/lib\libfat.a(filetime.o)
 .debug_info    0x000582e8      0x4b8 c:/devkitPro/libnds/lib\libnds9.a(gurumeditation.o)
 .debug_info    0x000587a0      0x3ad c:/devkitPro/libnds/lib\libnds9.a(keys.o)
 .debug_info    0x00058b4d      0x64e c:/devkitPro/libnds/lib\libnds9.a(system.o)
 .debug_info    0x0005919b      0x2c5 c:/devkitPro/libnds/lib\libnds9.a(touch.o)
 .debug_info    0x00059460      0x301 c:/devkitPro/libnds/lib\libnds9.a(video.o)
 .debug_info    0x00059761      0x594 c:/devkitPro/libnds/lib\libnds9.a(dldi.o)
 .debug_info    0x00059cf5      0xd2f c:/devkitPro/libnds/lib\libnds9.a(initSystem.o)
 .debug_info    0x0005aa24      0xf8d c:/devkitPro/libnds/lib\libnds9.a(fifosystem.o)
 .debug_info    0x0005b9b1      0x3ec c:/devkitPro/libnds/lib\libnds9.a(interrupts.o)
 .debug_info    0x0005bd9d      0x2a7 c:/devkitPro/libnds/lib\libnds9.a(libnds_exit.o)
 .debug_info    0x0005c044       0xba c:/devkitPro/libnds/lib\libnds9.a(dcache.o)
 .debug_info    0x0005c0fe       0xc4 c:/devkitPro/libnds/lib\libnds9.a(exceptionHandler.o)
 .debug_info    0x0005c1c2       0xc2 c:/devkitPro/libnds/lib\libnds9.a(dldi_stub.o)
 .debug_info    0x0005c284       0xc4 c:/devkitPro/libnds/lib\libnds9.a(mpu_setup.o)
 .debug_info    0x0005c348       0xbf c:/devkitPro/libnds/lib\libnds9.a(biosCalls.o)
 .debug_info    0x0005c407       0xc9 c:/devkitPro/libnds/lib\libnds9.a(interruptDispatcher.o)
 .debug_info    0x0005c4d0       0xc2 c:/devkitPro/libnds/lib\libnds9.a(swiSoftReset.o)
 .debug_info    0x0005c592     0x1e29 c:/devkitPro/libnds/lib\libnds9.a(console.o)
 .debug_info    0x0005e3bb       0xdb c:/devkitPro/libnds/lib\libnds9.a(exceptions.o)
 .debug_info    0x0005e496       0xc0 c:/devkitPro/libnds/lib\libnds9.a(debugprint.o)
 .debug_info    0x0005e556      0x883 c:/devkitPro/libnds/lib\libnds9.a(background.o)
 .debug_info    0x0005edd9      0x422 c:/devkitPro/libnds/lib\libnds9.a(trig.o)
 .debug_info    0x0005f1fb      0x5e8 c:/devkitPro/libnds/lib\libdswifi9.a(sgIP_Hub.o)
 .debug_info    0x0005f7e3      0x48d c:/devkitPro/libnds/lib\libdswifi9.a(sgIP_memblock.o)
 .debug_info    0x0005fc70     0x151d c:/devkitPro/libnds/lib\libdswifi9.a(sgIP_sockets.o)
 .debug_info    0x0006118d     0x23c4 c:/devkitPro/libnds/lib\libdswifi9.a(wifi_arm9.o)
 .debug_info    0x00063551       0xbe c:/devkitPro/libnds/lib\libdswifi9.a(spinlock.o)
 .debug_info    0x0006360f      0x10a c:/devkitPro/libnds/lib\libdswifi9.a(sgIP.o)
 .debug_info    0x00063719      0x85b c:/devkitPro/libnds/lib\libdswifi9.a(sgIP_ARP.o)
 .debug_info    0x00063f74      0x861 c:/devkitPro/libnds/lib\libdswifi9.a(sgIP_DHCP.o)
 .debug_info    0x000647d5      0xcc0 c:/devkitPro/libnds/lib\libdswifi9.a(sgIP_DNS.o)
 .debug_info    0x00065495      0x356 c:/devkitPro/libnds/lib\libdswifi9.a(sgIP_IP.o)
 .debug_info    0x000657eb     0x110d c:/devkitPro/libnds/lib\libdswifi9.a(sgIP_TCP.o)
 .debug_info    0x000668f8      0x833 c:/devkitPro/libnds/lib\libdswifi9.a(sgIP_UDP.o)
 .debug_info    0x0006712b      0x1c3 c:/devkitPro/libnds/lib\libdswifi9.a(sgIP_ICMP.o)

.debug_abbrev   0x00000000     0xd029 load address 0x02232870
 *(.debug_abbrev)
 .debug_abbrev  0x00000000      0x3a4 ky_geturl.o
 .debug_abbrev  0x000003a4      0x4a7 main.o
 .debug_abbrev  0x0000084b       0xcf BG2_bas_alg.o
 .debug_abbrev  0x0000091a       0xcf BG2_bas_amazonia.o
 .debug_abbrev  0x000009e9       0xcf BG2_bas_arg.o
 .debug_abbrev  0x00000ab8       0xcf BG2_bas_aus.o
 .debug_abbrev  0x00000b87       0xcf BG2_bas_baixada.o
 .debug_abbrev  0x00000c56       0xcf BG2_bas_beirario.o
 .debug_abbrev  0x00000d25       0xcf BG2_bas_bel.o
 .debug_abbrev  0x00000df4       0xcf BG2_bas_bih.o
 .debug_abbrev  0x00000ec3       0xcf BG2_bas_bra.o
 .debug_abbrev  0x00000f92       0xcf BG2_bas_castelao.o
 .debug_abbrev  0x00001061       0xcf BG2_bas_chi.o
 .debug_abbrev  0x00001130       0xcf BG2_bas_civ.o
 .debug_abbrev  0x000011ff       0xcf BG2_bas_cmr.o
 .debug_abbrev  0x000012ce       0xcf BG2_bas_col.o
 .debug_abbrev  0x0000139d       0xcf BG2_bas_crc.o
 .debug_abbrev  0x0000146c       0xcf BG2_bas_cro.o
 .debug_abbrev  0x0000153b       0xcf BG2_bas_dasdunas.o
 .debug_abbrev  0x0000160a       0xcf BG2_bas_ecu.o
 .debug_abbrev  0x000016d9       0xcf BG2_bas_eng.o
 .debug_abbrev  0x000017a8       0xcf BG2_bas_esp.o
 .debug_abbrev  0x00001877       0xcf BG2_bas_fontenova.o
 .debug_abbrev  0x00001946       0xcf BG2_bas_fra.o
 .debug_abbrev  0x00001a15       0xcf BG2_bas_ger.o
 .debug_abbrev  0x00001ae4       0xcf BG2_bas_gha.o
 .debug_abbrev  0x00001bb3       0xcf BG2_bas_gre.o
 .debug_abbrev  0x00001c82       0xcf BG2_bas_hon.o
 .debug_abbrev  0x00001d51       0xcf BG2_bas_irn.o
 .debug_abbrev  0x00001e20       0xcf BG2_bas_ita.o
 .debug_abbrev  0x00001eef       0xcf BG2_bas_jpn.o
 .debug_abbrev  0x00001fbe       0xcf BG2_bas_kor.o
 .debug_abbrev  0x0000208d       0xcf BG2_bas_maracana.o
 .debug_abbrev  0x0000215c       0xcf BG2_bas_mex.o
 .debug_abbrev  0x0000222b       0xcf BG2_bas_mineirao.o
 .debug_abbrev  0x000022fa       0xcf BG2_bas_nacional.o
 .debug_abbrev  0x000023c9       0xcf BG2_bas_ned.o
 .debug_abbrev  0x00002498       0xcf BG2_bas_nga.o
 .debug_abbrev  0x00002567       0xcf BG2_bas_pantanal.o
 .debug_abbrev  0x00002636       0xcf BG2_bas_pernambuco.o
 .debug_abbrev  0x00002705       0xcf BG2_bas_por.o
 .debug_abbrev  0x000027d4       0xcf BG2_bas_rus.o
 .debug_abbrev  0x000028a3       0xcf BG2_bas_saopaulo.o
 .debug_abbrev  0x00002972       0xcf BG2_bas_selection.o
 .debug_abbrev  0x00002a41       0xcf BG2_bas_sui.o
 .debug_abbrev  0x00002b10       0xcf BG2_bas_uru.o
 .debug_abbrev  0x00002bdf       0xcf BG2_bas_usa.o
 .debug_abbrev  0x00002cae       0xcf newfont.o
 .debug_abbrev  0x00002d7d      0x317 c:/devkitPro/PAlib/lib\libpa9.a(PA_BgTiles.o)
 .debug_abbrev  0x00003094      0x27b c:/devkitPro/PAlib/lib\libpa9.a(PA.o)
 .debug_abbrev  0x0000330f      0x274 c:/devkitPro/PAlib/lib\libpa9.a(PA_Draw8bit.o)
 .debug_abbrev  0x00003583      0x26c c:/devkitPro/PAlib/lib\libpa9.a(PA_Draw.o)
 .debug_abbrev  0x000037ef      0x1e6 c:/devkitPro/PAlib/lib\libpa9.a(PA_Error.o)
 .debug_abbrev  0x000039d5      0x348 c:/devkitPro/PAlib/lib\libpa9.a(PA_Gif.o)
 .debug_abbrev  0x00003d1d      0x308 c:/devkitPro/PAlib/lib\libpa9.a(PA_Inits.o)
 .debug_abbrev  0x00004025      0x22e c:/devkitPro/PAlib/lib\libpa9.a(PA_Interrupt.o)
 .debug_abbrev  0x00004253      0x224 c:/devkitPro/PAlib/lib\libpa9.a(PA_Keys.o)
 .debug_abbrev  0x00004477      0x277 c:/devkitPro/PAlib/lib\libpa9.a(PA_Math.o)
 .debug_abbrev  0x000046ee      0x32d c:/devkitPro/PAlib/lib\libpa9.a(PA_NewBg.o)
 .debug_abbrev  0x00004a1b      0x296 c:/devkitPro/PAlib/lib\libpa9.a(PA_Palette.o)
 .debug_abbrev  0x00004cb1      0x317 c:/devkitPro/PAlib/lib\libpa9.a(PA_Reco.o)
 .debug_abbrev  0x00004fc8      0x239 c:/devkitPro/PAlib/lib\libpa9.a(PA_RTC.o)
 .debug_abbrev  0x00005201      0x2b6 c:/devkitPro/PAlib/lib\libpa9.a(PA_SpriteAnim.o)
 .debug_abbrev  0x000054b7      0x369 c:/devkitPro/PAlib/lib\libpa9.a(PA_Sprite.o)
 .debug_abbrev  0x00005820      0x239 c:/devkitPro/PAlib/lib\libpa9.a(PA_Stuff.o)
 .debug_abbrev  0x00005a59      0x369 c:/devkitPro/PAlib/lib\libpa9.a(PA_Text8bit.o)
 .debug_abbrev  0x00005dc2      0x2b7 c:/devkitPro/PAlib/lib\libpa9.a(PA_TextBits.o)
 .debug_abbrev  0x00006079      0x328 c:/devkitPro/PAlib/lib\libpa9.a(PA_Text.o)
 .debug_abbrev  0x000063a1      0x303 c:/devkitPro/PAlib/lib\libpa9.a(dgif_lib.o)
 .debug_abbrev  0x000066a4      0x24d c:/devkitPro/PAlib/lib\libpa9.a(gifalloc.o)
 .debug_abbrev  0x000068f1      0x19f c:/devkitPro/PAlib/lib\libpa9.a(gif_err.o)
 .debug_abbrev  0x00006a90       0xcf c:/devkitPro/PAlib/lib\libpa9.a(PA_TiledFont.o)
 .debug_abbrev  0x00006b5f       0xcf c:/devkitPro/PAlib/lib\libpa9.a(PA_BmpFont0.o)
 .debug_abbrev  0x00006c2e       0xcf c:/devkitPro/PAlib/lib\libpa9.a(PA_BmpFont1.o)
 .debug_abbrev  0x00006cfd       0xcf c:/devkitPro/PAlib/lib\libpa9.a(PA_BmpFont2.o)
 .debug_abbrev  0x00006dcc       0xcf c:/devkitPro/PAlib/lib\libpa9.a(PA_BmpFont3.o)
 .debug_abbrev  0x00006e9b       0xcf c:/devkitPro/PAlib/lib\libpa9.a(PA_BmpFont4.o)
 .debug_abbrev  0x00006f6a      0x341 c:/devkitPro/PAlib/lib\libpa9.a(PA_16c.o)
 .debug_abbrev  0x000072ab      0x316 c:/devkitPro/PAlib/lib\libpa9.a(PA_BgEasy.o)
 .debug_abbrev  0x000075c1      0x326 c:/devkitPro/PAlib/lib\libpa9.a(PA_BgLargeMap.o)
 .debug_abbrev  0x000078e7      0x256 c:/devkitPro/PAlib/lib\libpa9.a(PA_BgRot.o)
 .debug_abbrev  0x00007b3d      0x211 c:/devkitPro/PAlib/lib\libpa9.a(PA_Fifo.o)
 .debug_abbrev  0x00007d4e      0x302 c:/devkitPro/PAlib/lib\libpa9.a(PA_Keyboard.o)
 .debug_abbrev  0x00008050      0x290 c:/devkitPro/PAlib/lib\libpa9.a(PA_PaletteEx.o)
 .debug_abbrev  0x000082e0       0x50 c:/devkitPro/PAlib/lib\libpa9.a(keyboard.map.o)
 .debug_abbrev  0x00008330       0x50 c:/devkitPro/PAlib/lib\libpa9.a(keyboard.pal.o)
 .debug_abbrev  0x00008380       0x50 c:/devkitPro/PAlib/lib\libpa9.a(keyboard.raw.o)
 .debug_abbrev  0x000083d0      0x2a6 c:/devkitPro/libnds/lib\libfat.a(libfat.o)
 .debug_abbrev  0x00008676      0x2f9 c:/devkitPro/libnds/lib\libfat.a(partition.o)
 .debug_abbrev  0x0000896f      0x308 c:/devkitPro/libnds/lib\libfat.a(cache.o)
 .debug_abbrev  0x00008c77      0x3ac c:/devkitPro/libnds/lib\libfat.a(directory.o)
 .debug_abbrev  0x00009023       0xd9 c:/devkitPro/libnds/lib\libfat.a(disc.o)
 .debug_abbrev  0x000090fc      0x342 c:/devkitPro/libnds/lib\libfat.a(fatdir.o)
 .debug_abbrev  0x0000943e      0x349 c:/devkitPro/libnds/lib\libfat.a(fatfile.o)
 .debug_abbrev  0x00009787      0x1dd c:/devkitPro/libnds/lib\libfat.a(file_allocation_table.o)
 .debug_abbrev  0x00009964       0xaa c:/devkitPro/libnds/lib\libfat.a(filetime.o)
 .debug_abbrev  0x00009a0e      0x1a8 c:/devkitPro/libnds/lib\libnds9.a(gurumeditation.o)
 .debug_abbrev  0x00009bb6      0x185 c:/devkitPro/libnds/lib\libnds9.a(keys.o)
 .debug_abbrev  0x00009d3b      0x1a1 c:/devkitPro/libnds/lib\libnds9.a(system.o)
 .debug_abbrev  0x00009edc      0x12c c:/devkitPro/libnds/lib\libnds9.a(touch.o)
 .debug_abbrev  0x0000a008       0xe2 c:/devkitPro/libnds/lib\libnds9.a(video.o)
 .debug_abbrev  0x0000a0ea      0x20e c:/devkitPro/libnds/lib\libnds9.a(dldi.o)
 .debug_abbrev  0x0000a2f8      0x220 c:/devkitPro/libnds/lib\libnds9.a(initSystem.o)
 .debug_abbrev  0x0000a518      0x317 c:/devkitPro/libnds/lib\libnds9.a(fifosystem.o)
 .debug_abbrev  0x0000a82f      0x1bd c:/devkitPro/libnds/lib\libnds9.a(interrupts.o)
 .debug_abbrev  0x0000a9ec      0x138 c:/devkitPro/libnds/lib\libnds9.a(libnds_exit.o)
 .debug_abbrev  0x0000ab24       0x14 c:/devkitPro/libnds/lib\libnds9.a(dcache.o)
 .debug_abbrev  0x0000ab38       0x14 c:/devkitPro/libnds/lib\libnds9.a(exceptionHandler.o)
 .debug_abbrev  0x0000ab4c       0x14 c:/devkitPro/libnds/lib\libnds9.a(dldi_stub.o)
 .debug_abbrev  0x0000ab60       0x14 c:/devkitPro/libnds/lib\libnds9.a(mpu_setup.o)
 .debug_abbrev  0x0000ab74       0x14 c:/devkitPro/libnds/lib\libnds9.a(biosCalls.o)
 .debug_abbrev  0x0000ab88       0x14 c:/devkitPro/libnds/lib\libnds9.a(interruptDispatcher.o)
 .debug_abbrev  0x0000ab9c       0x14 c:/devkitPro/libnds/lib\libnds9.a(swiSoftReset.o)
 .debug_abbrev  0x0000abb0      0x3fe c:/devkitPro/libnds/lib\libnds9.a(console.o)
 .debug_abbrev  0x0000afae       0x97 c:/devkitPro/libnds/lib\libnds9.a(exceptions.o)
 .debug_abbrev  0x0000b045       0x14 c:/devkitPro/libnds/lib\libnds9.a(debugprint.o)
 .debug_abbrev  0x0000b059      0x25e c:/devkitPro/libnds/lib\libnds9.a(background.o)
 .debug_abbrev  0x0000b2b7      0x17c c:/devkitPro/libnds/lib\libnds9.a(trig.o)
 .debug_abbrev  0x0000b433      0x19c c:/devkitPro/libnds/lib\libdswifi9.a(sgIP_Hub.o)
 .debug_abbrev  0x0000b5cf      0x220 c:/devkitPro/libnds/lib\libdswifi9.a(sgIP_memblock.o)
 .debug_abbrev  0x0000b7ef      0x32a c:/devkitPro/libnds/lib\libdswifi9.a(sgIP_sockets.o)
 .debug_abbrev  0x0000bb19      0x53f c:/devkitPro/libnds/lib\libdswifi9.a(wifi_arm9.o)
 .debug_abbrev  0x0000c058       0x14 c:/devkitPro/libnds/lib\libdswifi9.a(spinlock.o)
 .debug_abbrev  0x0000c06c       0x82 c:/devkitPro/libnds/lib\libdswifi9.a(sgIP.o)
 .debug_abbrev  0x0000c0ee      0x289 c:/devkitPro/libnds/lib\libdswifi9.a(sgIP_ARP.o)
 .debug_abbrev  0x0000c377      0x23b c:/devkitPro/libnds/lib\libdswifi9.a(sgIP_DHCP.o)
 .debug_abbrev  0x0000c5b2      0x338 c:/devkitPro/libnds/lib\libdswifi9.a(sgIP_DNS.o)
 .debug_abbrev  0x0000c8ea      0x12d c:/devkitPro/libnds/lib\libdswifi9.a(sgIP_IP.o)
 .debug_abbrev  0x0000ca17      0x317 c:/devkitPro/libnds/lib\libdswifi9.a(sgIP_TCP.o)
 .debug_abbrev  0x0000cd2e      0x21c c:/devkitPro/libnds/lib\libdswifi9.a(sgIP_UDP.o)
 .debug_abbrev  0x0000cf4a       0xdf c:/devkitPro/libnds/lib\libdswifi9.a(sgIP_ICMP.o)

.debug_line     0x00000000    0x19836 load address 0x02232870
 *(.debug_line)
 .debug_line    0x00000000      0x5db ky_geturl.o
 .debug_line    0x000005db     0x4f55 main.o
 .debug_line    0x00005530       0xdd BG2_bas_alg.o
 .debug_line    0x0000560d       0xe2 BG2_bas_amazonia.o
 .debug_line    0x000056ef       0xdd BG2_bas_arg.o
 .debug_line    0x000057cc       0xdd BG2_bas_aus.o
 .debug_line    0x000058a9       0xe1 BG2_bas_baixada.o
 .debug_line    0x0000598a       0xe2 BG2_bas_beirario.o
 .debug_line    0x00005a6c       0xdd BG2_bas_bel.o
 .debug_line    0x00005b49       0xdd BG2_bas_bih.o
 .debug_line    0x00005c26       0xdd BG2_bas_bra.o
 .debug_line    0x00005d03       0xe2 BG2_bas_castelao.o
 .debug_line    0x00005de5       0xdd BG2_bas_chi.o
 .debug_line    0x00005ec2       0xdd BG2_bas_civ.o
 .debug_line    0x00005f9f       0xdd BG2_bas_cmr.o
 .debug_line    0x0000607c       0xdd BG2_bas_col.o
 .debug_line    0x00006159       0xdd BG2_bas_crc.o
 .debug_line    0x00006236       0xdd BG2_bas_cro.o
 .debug_line    0x00006313       0xe2 BG2_bas_dasdunas.o
 .debug_line    0x000063f5       0xdd BG2_bas_ecu.o
 .debug_line    0x000064d2       0xdd BG2_bas_eng.o
 .debug_line    0x000065af       0xdd BG2_bas_esp.o
 .debug_line    0x0000668c       0xe3 BG2_bas_fontenova.o
 .debug_line    0x0000676f       0xdd BG2_bas_fra.o
 .debug_line    0x0000684c       0xdd BG2_bas_ger.o
 .debug_line    0x00006929       0xdd BG2_bas_gha.o
 .debug_line    0x00006a06       0xdd BG2_bas_gre.o
 .debug_line    0x00006ae3       0xdd BG2_bas_hon.o
 .debug_line    0x00006bc0       0xdd BG2_bas_irn.o
 .debug_line    0x00006c9d       0xdd BG2_bas_ita.o
 .debug_line    0x00006d7a       0xdd BG2_bas_jpn.o
 .debug_line    0x00006e57       0xdd BG2_bas_kor.o
 .debug_line    0x00006f34       0xe2 BG2_bas_maracana.o
 .debug_line    0x00007016       0xdd BG2_bas_mex.o
 .debug_line    0x000070f3       0xe2 BG2_bas_mineirao.o
 .debug_line    0x000071d5       0xe2 BG2_bas_nacional.o
 .debug_line    0x000072b7       0xdd BG2_bas_ned.o
 .debug_line    0x00007394       0xdd BG2_bas_nga.o
 .debug_line    0x00007471       0xe2 BG2_bas_pantanal.o
 .debug_line    0x00007553       0xe4 BG2_bas_pernambuco.o
 .debug_line    0x00007637       0xdd BG2_bas_por.o
 .debug_line    0x00007714       0xdd BG2_bas_rus.o
 .debug_line    0x000077f1       0xe2 BG2_bas_saopaulo.o
 .debug_line    0x000078d3       0xe3 BG2_bas_selection.o
 .debug_line    0x000079b6       0xdd BG2_bas_sui.o
 .debug_line    0x00007a93       0xdd BG2_bas_uru.o
 .debug_line    0x00007b70       0xdd BG2_bas_usa.o
 .debug_line    0x00007c4d       0xd9 newfont.o
 .debug_line    0x00007d26      0x58a c:/devkitPro/PAlib/lib\libpa9.a(PA_BgTiles.o)
 .debug_line    0x000082b0      0x467 c:/devkitPro/PAlib/lib\libpa9.a(PA.o)
 .debug_line    0x00008717      0x4a0 c:/devkitPro/PAlib/lib\libpa9.a(PA_Draw8bit.o)
 .debug_line    0x00008bb7      0x48a c:/devkitPro/PAlib/lib\libpa9.a(PA_Draw.o)
 .debug_line    0x00009041      0x3d2 c:/devkitPro/PAlib/lib\libpa9.a(PA_Error.o)
 .debug_line    0x00009413      0x52b c:/devkitPro/PAlib/lib\libpa9.a(PA_Gif.o)
 .debug_line    0x0000993e      0x587 c:/devkitPro/PAlib/lib\libpa9.a(PA_Inits.o)
 .debug_line    0x00009ec5      0x433 c:/devkitPro/PAlib/lib\libpa9.a(PA_Interrupt.o)
 .debug_line    0x0000a2f8      0x41f c:/devkitPro/PAlib/lib\libpa9.a(PA_Keys.o)
 .debug_line    0x0000a717      0x44a c:/devkitPro/PAlib/lib\libpa9.a(PA_Math.o)
 .debug_line    0x0000ab61      0x6c8 c:/devkitPro/PAlib/lib\libpa9.a(PA_NewBg.o)
 .debug_line    0x0000b229      0x4ee c:/devkitPro/PAlib/lib\libpa9.a(PA_Palette.o)
 .debug_line    0x0000b717      0x511 c:/devkitPro/PAlib/lib\libpa9.a(PA_Reco.o)
 .debug_line    0x0000bc28      0x413 c:/devkitPro/PAlib/lib\libpa9.a(PA_RTC.o)
 .debug_line    0x0000c03b      0x4c9 c:/devkitPro/PAlib/lib\libpa9.a(PA_SpriteAnim.o)
 .debug_line    0x0000c504      0x551 c:/devkitPro/PAlib/lib\libpa9.a(PA_Sprite.o)
 .debug_line    0x0000ca55      0x42b c:/devkitPro/PAlib/lib\libpa9.a(PA_Stuff.o)
 .debug_line    0x0000ce80      0xa30 c:/devkitPro/PAlib/lib\libpa9.a(PA_Text8bit.o)
 .debug_line    0x0000d8b0      0x4ec c:/devkitPro/PAlib/lib\libpa9.a(PA_TextBits.o)
 .debug_line    0x0000dd9c      0x695 c:/devkitPro/PAlib/lib\libpa9.a(PA_Text.o)
 .debug_line    0x0000e431      0x560 c:/devkitPro/PAlib/lib\libpa9.a(dgif_lib.o)
 .debug_line    0x0000e991      0x1b7 c:/devkitPro/PAlib/lib\libpa9.a(gifalloc.o)
 .debug_line    0x0000eb48      0x156 c:/devkitPro/PAlib/lib\libpa9.a(gif_err.o)
 .debug_line    0x0000ec9e      0x10c c:/devkitPro/PAlib/lib\libpa9.a(PA_TiledFont.o)
 .debug_line    0x0000edaa      0x10c c:/devkitPro/PAlib/lib\libpa9.a(PA_BmpFont0.o)
 .debug_line    0x0000eeb6      0x10c c:/devkitPro/PAlib/lib\libpa9.a(PA_BmpFont1.o)
 .debug_line    0x0000efc2      0x10c c:/devkitPro/PAlib/lib\libpa9.a(PA_BmpFont2.o)
 .debug_line    0x0000f0ce      0x10c c:/devkitPro/PAlib/lib\libpa9.a(PA_BmpFont3.o)
 .debug_line    0x0000f1da      0x10c c:/devkitPro/PAlib/lib\libpa9.a(PA_BmpFont4.o)
 .debug_line    0x0000f2e6      0x55c c:/devkitPro/PAlib/lib\libpa9.a(PA_16c.o)
 .debug_line    0x0000f842      0x4f3 c:/devkitPro/PAlib/lib\libpa9.a(PA_BgEasy.o)
 .debug_line    0x0000fd35      0xc19 c:/devkitPro/PAlib/lib\libpa9.a(PA_BgLargeMap.o)
 .debug_line    0x0001094e      0x3fa c:/devkitPro/PAlib/lib\libpa9.a(PA_BgRot.o)
 .debug_line    0x00010d48      0x487 c:/devkitPro/PAlib/lib\libpa9.a(PA_Fifo.o)
 .debug_line    0x000111cf      0x57f c:/devkitPro/PAlib/lib\libpa9.a(PA_Keyboard.o)
 .debug_line    0x0001174e      0x4bc c:/devkitPro/PAlib/lib\libpa9.a(PA_PaletteEx.o)
 .debug_line    0x00011c0a       0x5f c:/devkitPro/PAlib/lib\libpa9.a(keyboard.map.o)
 .debug_line    0x00011c69       0x5f c:/devkitPro/PAlib/lib\libpa9.a(keyboard.pal.o)
 .debug_line    0x00011cc8       0x5f c:/devkitPro/PAlib/lib\libpa9.a(keyboard.raw.o)
 .debug_line    0x00011d27      0x3b7 c:/devkitPro/libnds/lib\libfat.a(libfat.o)
 .debug_line    0x000120de      0x464 c:/devkitPro/libnds/lib\libfat.a(partition.o)
 .debug_line    0x00012542      0x353 c:/devkitPro/libnds/lib\libfat.a(cache.o)
 .debug_line    0x00012895      0x7f1 c:/devkitPro/libnds/lib\libfat.a(directory.o)
 .debug_line    0x00013086      0x10a c:/devkitPro/libnds/lib\libfat.a(disc.o)
 .debug_line    0x00013190      0x55c c:/devkitPro/libnds/lib\libfat.a(fatdir.o)
 .debug_line    0x000136ec      0x7d8 c:/devkitPro/libnds/lib\libfat.a(fatfile.o)
 .debug_line    0x00013ec4      0x266 c:/devkitPro/libnds/lib\libfat.a(file_allocation_table.o)
 .debug_line    0x0001412a      0x161 c:/devkitPro/libnds/lib\libfat.a(filetime.o)
 .debug_line    0x0001428b      0x26e c:/devkitPro/libnds/lib\libnds9.a(gurumeditation.o)
 .debug_line    0x000144f9      0x23e c:/devkitPro/libnds/lib\libnds9.a(keys.o)
 .debug_line    0x00014737      0x258 c:/devkitPro/libnds/lib\libnds9.a(system.o)
 .debug_line    0x0001498f      0x21e c:/devkitPro/libnds/lib\libnds9.a(touch.o)
 .debug_line    0x00014bad      0x1a8 c:/devkitPro/libnds/lib\libnds9.a(video.o)
 .debug_line    0x00014d55      0x30c c:/devkitPro/libnds/lib\libnds9.a(dldi.o)
 .debug_line    0x00015061      0x342 c:/devkitPro/libnds/lib\libnds9.a(initSystem.o)
 .debug_line    0x000153a3      0x5d4 c:/devkitPro/libnds/lib\libnds9.a(fifosystem.o)
 .debug_line    0x00015977      0x1b8 c:/devkitPro/libnds/lib\libnds9.a(interrupts.o)
 .debug_line    0x00015b2f      0x1ca c:/devkitPro/libnds/lib\libnds9.a(libnds_exit.o)
 .debug_line    0x00015cf9       0xa2 c:/devkitPro/libnds/lib\libnds9.a(dcache.o)
 .debug_line    0x00015d9b       0xa7 c:/devkitPro/libnds/lib\libnds9.a(exceptionHandler.o)
 .debug_line    0x00015e42       0x8b c:/devkitPro/libnds/lib\libnds9.a(dldi_stub.o)
 .debug_line    0x00015ecd       0xe1 c:/devkitPro/libnds/lib\libnds9.a(mpu_setup.o)
 .debug_line    0x00015fae       0xbf c:/devkitPro/libnds/lib\libnds9.a(biosCalls.o)
 .debug_line    0x0001606d       0xc2 c:/devkitPro/libnds/lib\libnds9.a(interruptDispatcher.o)
 .debug_line    0x0001612f       0x91 c:/devkitPro/libnds/lib\libnds9.a(swiSoftReset.o)
 .debug_line    0x000161c0      0x6ad c:/devkitPro/libnds/lib\libnds9.a(console.o)
 .debug_line    0x0001686d      0x199 c:/devkitPro/libnds/lib\libnds9.a(exceptions.o)
 .debug_line    0x00016a06       0x94 c:/devkitPro/libnds/lib\libnds9.a(debugprint.o)
 .debug_line    0x00016a9a      0x27f c:/devkitPro/libnds/lib\libnds9.a(background.o)
 .debug_line    0x00016d19      0x1a3 c:/devkitPro/libnds/lib\libnds9.a(trig.o)
 .debug_line    0x00016ebc      0x10f c:/devkitPro/libnds/lib\libdswifi9.a(sgIP_Hub.o)
 .debug_line    0x00016fcb      0x1a7 c:/devkitPro/libnds/lib\libdswifi9.a(sgIP_memblock.o)
 .debug_line    0x00017172      0x7d3 c:/devkitPro/libnds/lib\libdswifi9.a(sgIP_sockets.o)
 .debug_line    0x00017945      0x87d c:/devkitPro/libnds/lib\libdswifi9.a(wifi_arm9.o)
 .debug_line    0x000181c2       0x9b c:/devkitPro/libnds/lib\libdswifi9.a(spinlock.o)
 .debug_line    0x0001825d       0x99 c:/devkitPro/libnds/lib\libdswifi9.a(sgIP.o)
 .debug_line    0x000182f6      0x1e8 c:/devkitPro/libnds/lib\libdswifi9.a(sgIP_ARP.o)
 .debug_line    0x000184de      0x3c4 c:/devkitPro/libnds/lib\libdswifi9.a(sgIP_DHCP.o)
 .debug_line    0x000188a2      0x4ab c:/devkitPro/libnds/lib\libdswifi9.a(sgIP_DNS.o)
 .debug_line    0x00018d4d       0xfa c:/devkitPro/libnds/lib\libdswifi9.a(sgIP_IP.o)
 .debug_line    0x00018e47      0x6ad c:/devkitPro/libnds/lib\libdswifi9.a(sgIP_TCP.o)
 .debug_line    0x000194f4      0x28e c:/devkitPro/libnds/lib\libdswifi9.a(sgIP_UDP.o)
 .debug_line    0x00019782       0xb4 c:/devkitPro/libnds/lib\libdswifi9.a(sgIP_ICMP.o)

.debug_frame    0x00000000     0x4d08 load address 0x02232870
 *(.debug_frame)
 .debug_frame   0x00000000      0x22c ky_geturl.o
 .debug_frame   0x0000022c      0x770 main.o
 .debug_frame   0x0000099c      0x140 c:/devkitPro/PAlib/lib\libpa9.a(PA_BgTiles.o)
 .debug_frame   0x00000adc       0x58 c:/devkitPro/PAlib/lib\libpa9.a(PA.o)
 .debug_frame   0x00000b34       0xac c:/devkitPro/PAlib/lib\libpa9.a(PA_Draw8bit.o)
 .debug_frame   0x00000be0       0x48 c:/devkitPro/PAlib/lib\libpa9.a(PA_Draw.o)
 .debug_frame   0x00000c28       0x54 c:/devkitPro/PAlib/lib\libpa9.a(PA_Error.o)
 .debug_frame   0x00000c7c       0xc8 c:/devkitPro/PAlib/lib\libpa9.a(PA_Gif.o)
 .debug_frame   0x00000d44       0x60 c:/devkitPro/PAlib/lib\libpa9.a(PA_Inits.o)
 .debug_frame   0x00000da4       0x48 c:/devkitPro/PAlib/lib\libpa9.a(PA_Interrupt.o)
 .debug_frame   0x00000dec       0x60 c:/devkitPro/PAlib/lib\libpa9.a(PA_Keys.o)
 .debug_frame   0x00000e4c       0x44 c:/devkitPro/PAlib/lib\libpa9.a(PA_Math.o)
 .debug_frame   0x00000e90       0xe8 c:/devkitPro/PAlib/lib\libpa9.a(PA_NewBg.o)
 .debug_frame   0x00000f78       0x7c c:/devkitPro/PAlib/lib\libpa9.a(PA_Palette.o)
 .debug_frame   0x00000ff4       0x9c c:/devkitPro/PAlib/lib\libpa9.a(PA_Reco.o)
 .debug_frame   0x00001090       0x48 c:/devkitPro/PAlib/lib\libpa9.a(PA_RTC.o)
 .debug_frame   0x000010d8       0x78 c:/devkitPro/PAlib/lib\libpa9.a(PA_SpriteAnim.o)
 .debug_frame   0x00001150      0x170 c:/devkitPro/PAlib/lib\libpa9.a(PA_Sprite.o)
 .debug_frame   0x000012c0       0x60 c:/devkitPro/PAlib/lib\libpa9.a(PA_Stuff.o)
 .debug_frame   0x00001320      0x188 c:/devkitPro/PAlib/lib\libpa9.a(PA_Text8bit.o)
 .debug_frame   0x000014a8       0x78 c:/devkitPro/PAlib/lib\libpa9.a(PA_TextBits.o)
 .debug_frame   0x00001520      0x108 c:/devkitPro/PAlib/lib\libpa9.a(PA_Text.o)
 .debug_frame   0x00001628      0x2a8 c:/devkitPro/PAlib/lib\libpa9.a(dgif_lib.o)
 .debug_frame   0x000018d0      0x178 c:/devkitPro/PAlib/lib\libpa9.a(gifalloc.o)
 .debug_frame   0x00001a48       0x3c c:/devkitPro/PAlib/lib\libpa9.a(gif_err.o)
 .debug_frame   0x00001a84      0x10c c:/devkitPro/PAlib/lib\libpa9.a(PA_16c.o)
 .debug_frame   0x00001b90       0xc0 c:/devkitPro/PAlib/lib\libpa9.a(PA_BgEasy.o)
 .debug_frame   0x00001c50      0x1cc c:/devkitPro/PAlib/lib\libpa9.a(PA_BgLargeMap.o)
 .debug_frame   0x00001e1c       0x44 c:/devkitPro/PAlib/lib\libpa9.a(PA_BgRot.o)
 .debug_frame   0x00001e60       0x48 c:/devkitPro/PAlib/lib\libpa9.a(PA_Fifo.o)
 .debug_frame   0x00001ea8      0x10c c:/devkitPro/PAlib/lib\libpa9.a(PA_Keyboard.o)
 .debug_frame   0x00001fb4       0xc4 c:/devkitPro/PAlib/lib\libpa9.a(PA_PaletteEx.o)
 .debug_frame   0x00002078       0xf0 c:/devkitPro/libnds/lib\libfat.a(libfat.o)
 .debug_frame   0x00002168       0xb8 c:/devkitPro/libnds/lib\libfat.a(partition.o)
 .debug_frame   0x00002220      0x20c c:/devkitPro/libnds/lib\libfat.a(cache.o)
 .debug_frame   0x0000242c      0x2c8 c:/devkitPro/libnds/lib\libfat.a(directory.o)
 .debug_frame   0x000026f4      0x1a8 c:/devkitPro/libnds/lib\libfat.a(fatdir.o)
 .debug_frame   0x0000289c      0x208 c:/devkitPro/libnds/lib\libfat.a(fatfile.o)
 .debug_frame   0x00002aa4      0x148 c:/devkitPro/libnds/lib\libfat.a(file_allocation_table.o)
 .debug_frame   0x00002bec       0x6c c:/devkitPro/libnds/lib\libfat.a(filetime.o)
 .debug_frame   0x00002c58       0xac c:/devkitPro/libnds/lib\libnds9.a(gurumeditation.o)
 .debug_frame   0x00002d04       0x98 c:/devkitPro/libnds/lib\libnds9.a(keys.o)
 .debug_frame   0x00002d9c       0xb8 c:/devkitPro/libnds/lib\libnds9.a(system.o)
 .debug_frame   0x00002e54       0x48 c:/devkitPro/libnds/lib\libnds9.a(touch.o)
 .debug_frame   0x00002e9c       0x5c c:/devkitPro/libnds/lib\libnds9.a(video.o)
 .debug_frame   0x00002ef8       0xbc c:/devkitPro/libnds/lib\libnds9.a(dldi.o)
 .debug_frame   0x00002fb4       0x30 c:/devkitPro/libnds/lib\libnds9.a(initSystem.o)
 .debug_frame   0x00002fe4      0x2bc c:/devkitPro/libnds/lib\libnds9.a(fifosystem.o)
 .debug_frame   0x000032a0       0xbc c:/devkitPro/libnds/lib\libnds9.a(interrupts.o)
 .debug_frame   0x0000335c       0x3c c:/devkitPro/libnds/lib\libnds9.a(libnds_exit.o)
 .debug_frame   0x00003398      0x1ec c:/devkitPro/libnds/lib\libnds9.a(console.o)
 .debug_frame   0x00003584       0x20 c:/devkitPro/libnds/lib\libnds9.a(exceptions.o)
 .debug_frame   0x000035a4       0xcc c:/devkitPro/libnds/lib\libnds9.a(background.o)
 .debug_frame   0x00003670       0xe8 c:/devkitPro/libnds/lib\libnds9.a(trig.o)
 .debug_frame   0x00003758      0x154 c:/devkitPro/libnds/lib\libdswifi9.a(sgIP_Hub.o)
 .debug_frame   0x000038ac      0x144 c:/devkitPro/libnds/lib\libdswifi9.a(sgIP_memblock.o)
 .debug_frame   0x000039f0      0x328 c:/devkitPro/libnds/lib\libdswifi9.a(sgIP_sockets.o)
 .debug_frame   0x00003d18      0x534 c:/devkitPro/libnds/lib\libdswifi9.a(wifi_arm9.o)
 .debug_frame   0x0000424c       0x48 c:/devkitPro/libnds/lib\libdswifi9.a(sgIP.o)
 .debug_frame   0x00004294      0x1b0 c:/devkitPro/libnds/lib\libdswifi9.a(sgIP_ARP.o)
 .debug_frame   0x00004444      0x180 c:/devkitPro/libnds/lib\libdswifi9.a(sgIP_DHCP.o)
 .debug_frame   0x000045c4      0x1e4 c:/devkitPro/libnds/lib\libdswifi9.a(sgIP_DNS.o)
 .debug_frame   0x000047a8       0xa8 c:/devkitPro/libnds/lib\libdswifi9.a(sgIP_IP.o)
 .debug_frame   0x00004850      0x2fc c:/devkitPro/libnds/lib\libdswifi9.a(sgIP_TCP.o)
 .debug_frame   0x00004b4c      0x174 c:/devkitPro/libnds/lib\libdswifi9.a(sgIP_UDP.o)
 .debug_frame   0x00004cc0       0x48 c:/devkitPro/libnds/lib\libdswifi9.a(sgIP_ICMP.o)

.debug_str      0x00000000     0xbff0 load address 0x02232870
 *(.debug_str)
 .debug_str     0x00000000      0xe98 ky_geturl.o
                               0x107a (size before relaxing)
 .debug_str     0x00000e98      0xf5e main.o
                               0x1de6 (size before relaxing)
 .debug_str     0x00001df6       0xd6 BG2_bas_alg.o
                                0x16c (size before relaxing)
 .debug_str     0x00001ecc       0x8a BG2_bas_amazonia.o
                                0x185 (size before relaxing)
 .debug_str     0x00001f56       0x76 BG2_bas_arg.o
                                0x16c (size before relaxing)
 .debug_str     0x00001fcc       0x76 BG2_bas_aus.o
                                0x16c (size before relaxing)
 .debug_str     0x00002042       0x86 BG2_bas_baixada.o
                                0x180 (size before relaxing)
 .debug_str     0x000020c8       0x8a BG2_bas_beirario.o
                                0x185 (size before relaxing)
 .debug_str     0x00002152       0x76 BG2_bas_bel.o
                                0x16c (size before relaxing)
 .debug_str     0x000021c8       0x76 BG2_bas_bih.o
                                0x16c (size before relaxing)
 .debug_str     0x0000223e       0x76 BG2_bas_bra.o
                                0x16c (size before relaxing)
 .debug_str     0x000022b4       0x8a BG2_bas_castelao.o
                                0x185 (size before relaxing)
 .debug_str     0x0000233e       0x76 BG2_bas_chi.o
                                0x16c (size before relaxing)
 .debug_str     0x000023b4       0x76 BG2_bas_civ.o
                                0x16c (size before relaxing)
 .debug_str     0x0000242a       0x76 BG2_bas_cmr.o
                                0x16c (size before relaxing)
 .debug_str     0x000024a0       0x76 BG2_bas_col.o
                                0x16c (size before relaxing)
 .debug_str     0x00002516       0x76 BG2_bas_crc.o
                                0x16c (size before relaxing)
 .debug_str     0x0000258c       0x76 BG2_bas_cro.o
                                0x16c (size before relaxing)
 .debug_str     0x00002602       0x8a BG2_bas_dasdunas.o
                                0x185 (size before relaxing)
 .debug_str     0x0000268c       0x76 BG2_bas_ecu.o
                                0x16c (size before relaxing)
 .debug_str     0x00002702       0x76 BG2_bas_eng.o
                                0x16c (size before relaxing)
 .debug_str     0x00002778       0x76 BG2_bas_esp.o
                                0x16c (size before relaxing)
 .debug_str     0x000027ee       0x8e BG2_bas_fontenova.o
                                0x18a (size before relaxing)
 .debug_str     0x0000287c       0x76 BG2_bas_fra.o
                                0x16c (size before relaxing)
 .debug_str     0x000028f2       0x76 BG2_bas_ger.o
                                0x16c (size before relaxing)
 .debug_str     0x00002968       0x76 BG2_bas_gha.o
                                0x16c (size before relaxing)
 .debug_str     0x000029de       0x76 BG2_bas_gre.o
                                0x16c (size before relaxing)
 .debug_str     0x00002a54       0x76 BG2_bas_hon.o
                                0x16c (size before relaxing)
 .debug_str     0x00002aca       0x76 BG2_bas_irn.o
                                0x16c (size before relaxing)
 .debug_str     0x00002b40       0x76 BG2_bas_ita.o
                                0x16c (size before relaxing)
 .debug_str     0x00002bb6       0x76 BG2_bas_jpn.o
                                0x16c (size before relaxing)
 .debug_str     0x00002c2c       0x76 BG2_bas_kor.o
                                0x16c (size before relaxing)
 .debug_str     0x00002ca2       0x8a BG2_bas_maracana.o
                                0x185 (size before relaxing)
 .debug_str     0x00002d2c       0x76 BG2_bas_mex.o
                                0x16c (size before relaxing)
 .debug_str     0x00002da2       0x8a BG2_bas_mineirao.o
                                0x185 (size before relaxing)
 .debug_str     0x00002e2c       0x8a BG2_bas_nacional.o
                                0x185 (size before relaxing)
 .debug_str     0x00002eb6       0x76 BG2_bas_ned.o
                                0x16c (size before relaxing)
 .debug_str     0x00002f2c       0x76 BG2_bas_nga.o
                                0x16c (size before relaxing)
 .debug_str     0x00002fa2       0x8a BG2_bas_pantanal.o
                                0x185 (size before relaxing)
 .debug_str     0x0000302c       0x92 BG2_bas_pernambuco.o
                                0x18f (size before relaxing)
 .debug_str     0x000030be       0x76 BG2_bas_por.o
                                0x16c (size before relaxing)
 .debug_str     0x00003134       0x76 BG2_bas_rus.o
                                0x16c (size before relaxing)
 .debug_str     0x000031aa       0x8a BG2_bas_saopaulo.o
                                0x185 (size before relaxing)
 .debug_str     0x00003234       0x8e BG2_bas_selection.o
                                0x18a (size before relaxing)
 .debug_str     0x000032c2       0x76 BG2_bas_sui.o
                                0x16c (size before relaxing)
 .debug_str     0x00003338       0x76 BG2_bas_uru.o
                                0x16c (size before relaxing)
 .debug_str     0x000033ae       0x76 BG2_bas_usa.o
                                0x16c (size before relaxing)
 .debug_str     0x00003424       0x66 newfont.o
                                0x158 (size before relaxing)
 .debug_str     0x0000348a      0x272 c:/devkitPro/PAlib/lib\libpa9.a(PA_BgTiles.o)
                                0xfc8 (size before relaxing)
 .debug_str     0x000036fc      0x2d7 c:/devkitPro/PAlib/lib\libpa9.a(PA.o)
                               0x1144 (size before relaxing)
 .debug_str     0x000039d3      0x339 c:/devkitPro/PAlib/lib\libpa9.a(PA_Draw8bit.o)
                               0x1087 (size before relaxing)
 .debug_str     0x00003d0c      0x164 c:/devkitPro/PAlib/lib\libpa9.a(PA_Draw.o)
                                0xe8f (size before relaxing)
 .debug_str     0x00003e70       0x67 c:/devkitPro/PAlib/lib\libpa9.a(PA_Error.o)
                                0xcb0 (size before relaxing)
 .debug_str     0x00003ed7      0x2e5 c:/devkitPro/PAlib/lib\libpa9.a(PA_Gif.o)
                               0x1081 (size before relaxing)
 .debug_str     0x000041bc      0x890 c:/devkitPro/PAlib/lib\libpa9.a(PA_Inits.o)
                               0x1830 (size before relaxing)
 .debug_str     0x00004a4c       0x6d c:/devkitPro/PAlib/lib\libpa9.a(PA_Interrupt.o)
                                0xdf4 (size before relaxing)
 .debug_str     0x00004ab9       0x82 c:/devkitPro/PAlib/lib\libpa9.a(PA_Keys.o)
                                0xe40 (size before relaxing)
 .debug_str     0x00004b3b       0x99 c:/devkitPro/PAlib/lib\libpa9.a(PA_Math.o)
                                0xda2 (size before relaxing)
 .debug_str     0x00004bd4      0x15b c:/devkitPro/PAlib/lib\libpa9.a(PA_NewBg.o)
                                0xed7 (size before relaxing)
 .debug_str     0x00004d2f      0x363 c:/devkitPro/PAlib/lib\libpa9.a(PA_Palette.o)
                               0x10be (size before relaxing)
 .debug_str     0x00005092      0x158 c:/devkitPro/PAlib/lib\libpa9.a(PA_Reco.o)
                                0xea3 (size before relaxing)
 .debug_str     0x000051ea      0x169 c:/devkitPro/PAlib/lib\libpa9.a(PA_RTC.o)
                                0xf3c (size before relaxing)
 .debug_str     0x00005353       0x87 c:/devkitPro/PAlib/lib\libpa9.a(PA_SpriteAnim.o)
                                0xd4e (size before relaxing)
 .debug_str     0x000053da      0x18c c:/devkitPro/PAlib/lib\libpa9.a(PA_Sprite.o)
                                0xf52 (size before relaxing)
 .debug_str     0x00005566      0x17d c:/devkitPro/PAlib/lib\libpa9.a(PA_Stuff.o)
                                0xe07 (size before relaxing)
 .debug_str     0x000056e3      0x1be c:/devkitPro/PAlib/lib\libpa9.a(PA_Text8bit.o)
                                0xf2a (size before relaxing)
 .debug_str     0x000058a1      0x13f c:/devkitPro/PAlib/lib\libpa9.a(PA_TextBits.o)
                                0xf34 (size before relaxing)
 .debug_str     0x000059e0      0x153 c:/devkitPro/PAlib/lib\libpa9.a(PA_Text.o)
                                0xf35 (size before relaxing)
 .debug_str     0x00005b33      0x2a3 c:/devkitPro/PAlib/lib\libpa9.a(dgif_lib.o)
                                0x975 (size before relaxing)
 .debug_str     0x00005dd6      0x137 c:/devkitPro/PAlib/lib\libpa9.a(gifalloc.o)
                                0x371 (size before relaxing)
 .debug_str     0x00005f0d       0x65 c:/devkitPro/PAlib/lib\libpa9.a(gif_err.o)
                                0x4b3 (size before relaxing)
 .debug_str     0x00005f72       0x4d c:/devkitPro/PAlib/lib\libpa9.a(PA_TiledFont.o)
                                0x179 (size before relaxing)
 .debug_str     0x00005fbf       0x4d c:/devkitPro/PAlib/lib\libpa9.a(PA_BmpFont0.o)
                                0x177 (size before relaxing)
 .debug_str     0x0000600c       0x4d c:/devkitPro/PAlib/lib\libpa9.a(PA_BmpFont1.o)
                                0x177 (size before relaxing)
 .debug_str     0x00006059       0x4d c:/devkitPro/PAlib/lib\libpa9.a(PA_BmpFont2.o)
                                0x177 (size before relaxing)
 .debug_str     0x000060a6       0x4d c:/devkitPro/PAlib/lib\libpa9.a(PA_BmpFont3.o)
                                0x177 (size before relaxing)
 .debug_str     0x000060f3       0x4d c:/devkitPro/PAlib/lib\libpa9.a(PA_BmpFont4.o)
                                0x177 (size before relaxing)
 .debug_str     0x00006140      0x117 c:/devkitPro/PAlib/lib\libpa9.a(PA_16c.o)
                                0xf55 (size before relaxing)
 .debug_str     0x00006257       0xa8 c:/devkitPro/PAlib/lib\libpa9.a(PA_BgEasy.o)
                                0xd6a (size before relaxing)
 .debug_str     0x000062ff      0x153 c:/devkitPro/PAlib/lib\libpa9.a(PA_BgLargeMap.o)
                                0xdff (size before relaxing)
 .debug_str     0x00006452       0x63 c:/devkitPro/PAlib/lib\libpa9.a(PA_BgRot.o)
                                0xdc9 (size before relaxing)
 .debug_str     0x000064b5       0xd1 c:/devkitPro/PAlib/lib\libpa9.a(PA_Fifo.o)
                                0xe2e (size before relaxing)
 .debug_str     0x00006586      0x11f c:/devkitPro/PAlib/lib\libpa9.a(PA_Keyboard.o)
                                0xea8 (size before relaxing)
 .debug_str     0x000066a5      0x273 c:/devkitPro/PAlib/lib\libpa9.a(PA_PaletteEx.o)
                               0x11ac (size before relaxing)
 .debug_str     0x00006918       0x3f c:/devkitPro/PAlib/lib\libpa9.a(keyboard.map.o)
                                 0x6b (size before relaxing)
 .debug_str     0x00006957       0x3f c:/devkitPro/PAlib/lib\libpa9.a(keyboard.pal.o)
                                 0x6f (size before relaxing)
 .debug_str     0x00006996       0x3f c:/devkitPro/PAlib/lib\libpa9.a(keyboard.raw.o)
                                 0x68 (size before relaxing)
 .debug_str     0x000069d5      0x515 c:/devkitPro/libnds/lib\libfat.a(libfat.o)
                                0xc12 (size before relaxing)
 .debug_str     0x00006eea      0x444 c:/devkitPro/libnds/lib\libfat.a(partition.o)
                                0xf25 (size before relaxing)
 .debug_str     0x0000732e      0x263 c:/devkitPro/libnds/lib\libfat.a(cache.o)
                                0x526 (size before relaxing)
 .debug_str     0x00007591      0x785 c:/devkitPro/libnds/lib\libfat.a(directory.o)
                                0xcc8 (size before relaxing)
 .debug_str     0x00007d16       0x4a c:/devkitPro/libnds/lib\libfat.a(disc.o)
                                0x229 (size before relaxing)
 .debug_str     0x00007d60      0x1c2 c:/devkitPro/libnds/lib\libfat.a(fatdir.o)
                                0xca7 (size before relaxing)
 .debug_str     0x00007f22      0x1e5 c:/devkitPro/libnds/lib\libfat.a(fatfile.o)
                                0xd26 (size before relaxing)
 .debug_str     0x00008107      0x167 c:/devkitPro/libnds/lib\libfat.a(file_allocation_table.o)
                                0x530 (size before relaxing)
 .debug_str     0x0000826e       0xb4 c:/devkitPro/libnds/lib\libfat.a(filetime.o)
                                0x1ac (size before relaxing)
 .debug_str     0x00008322      0x12e c:/devkitPro/libnds/lib\libnds9.a(gurumeditation.o)
                                0x29c (size before relaxing)
 .debug_str     0x00008450      0x169 c:/devkitPro/libnds/lib\libnds9.a(keys.o)
                                0x2d2 (size before relaxing)
 .debug_str     0x000085b9      0x199 c:/devkitPro/libnds/lib\libnds9.a(system.o)
                                0x48d (size before relaxing)
 .debug_str     0x00008752       0x70 c:/devkitPro/libnds/lib\libnds9.a(touch.o)
                                0x1f6 (size before relaxing)
 .debug_str     0x000087c2       0xbe c:/devkitPro/libnds/lib\libnds9.a(video.o)
                                0x641 (size before relaxing)
 .debug_str     0x00008880      0x1f4 c:/devkitPro/libnds/lib\libnds9.a(dldi.o)
                                0x3d2 (size before relaxing)
 .debug_str     0x00008a74       0xa9 c:/devkitPro/libnds/lib\libnds9.a(initSystem.o)
                                0x7f4 (size before relaxing)
 .debug_str     0x00008b1d      0x50c c:/devkitPro/libnds/lib\libnds9.a(fifosystem.o)
                                0x726 (size before relaxing)
 .debug_str     0x00009029      0x126 c:/devkitPro/libnds/lib\libnds9.a(interrupts.o)
                                0x32a (size before relaxing)
 .debug_str     0x0000914f       0x86 c:/devkitPro/libnds/lib\libnds9.a(libnds_exit.o)
                                0x296 (size before relaxing)
 .debug_str     0x000091d5      0x5fa c:/devkitPro/libnds/lib\libnds9.a(console.o)
                                0xff0 (size before relaxing)
 .debug_str     0x000097cf       0x84 c:/devkitPro/libnds/lib\libnds9.a(exceptions.o)
                                0x11e (size before relaxing)
 .debug_str     0x00009853      0x11b c:/devkitPro/libnds/lib\libnds9.a(background.o)
                                0x665 (size before relaxing)
 .debug_str     0x0000996e       0xbf c:/devkitPro/libnds/lib\libnds9.a(trig.o)
                                0x195 (size before relaxing)
 .debug_str     0x00009a2d      0x288 c:/devkitPro/libnds/lib\libdswifi9.a(sgIP_Hub.o)
                                0x3a5 (size before relaxing)
 .debug_str     0x00009cb5      0x1e4 c:/devkitPro/libnds/lib\libdswifi9.a(sgIP_memblock.o)
                                0x310 (size before relaxing)
 .debug_str     0x00009e99      0x4de c:/devkitPro/libnds/lib\libdswifi9.a(sgIP_sockets.o)
                                0x745 (size before relaxing)
 .debug_str     0x0000a377      0xded c:/devkitPro/libnds/lib\libdswifi9.a(wifi_arm9.o)
                               0x14f1 (size before relaxing)
 .debug_str     0x0000b164       0x81 c:/devkitPro/libnds/lib\libdswifi9.a(sgIP.o)
                                0x136 (size before relaxing)
 .debug_str     0x0000b1e5      0x294 c:/devkitPro/libnds/lib\libdswifi9.a(sgIP_ARP.o)
                                0x414 (size before relaxing)
 .debug_str     0x0000b479      0x261 c:/devkitPro/libnds/lib\libdswifi9.a(sgIP_DHCP.o)
                                0x51c (size before relaxing)
 .debug_str     0x0000b6da      0x283 c:/devkitPro/libnds/lib\libdswifi9.a(sgIP_DNS.o)
                                0x532 (size before relaxing)
 .debug_str     0x0000b95d      0x151 c:/devkitPro/libnds/lib\libdswifi9.a(sgIP_IP.o)
                                0x288 (size before relaxing)
 .debug_str     0x0000baae      0x30e c:/devkitPro/libnds/lib\libdswifi9.a(sgIP_TCP.o)
                                0x6ff (size before relaxing)
 .debug_str     0x0000bdbc      0x199 c:/devkitPro/libnds/lib\libdswifi9.a(sgIP_UDP.o)
                                0x3bf (size before relaxing)
 .debug_str     0x0000bf55       0x9b c:/devkitPro/libnds/lib\libdswifi9.a(sgIP_ICMP.o)
                                0x1ad (size before relaxing)

.debug_loc      0x00000000    0x18b4c load address 0x02232870
 *(.debug_loc)
 .debug_loc     0x00000000      0x9d7 ky_geturl.o
 .debug_loc     0x000009d7     0x1bcf main.o
 .debug_loc     0x000025a6      0x620 c:/devkitPro/PAlib/lib\libpa9.a(PA_BgTiles.o)
 .debug_loc     0x00002bc6       0xc1 c:/devkitPro/PAlib/lib\libpa9.a(PA.o)
 .debug_loc     0x00002c87      0x1cc c:/devkitPro/PAlib/lib\libpa9.a(PA_Draw8bit.o)
 .debug_loc     0x00002e53      0x33a c:/devkitPro/PAlib/lib\libpa9.a(PA_Draw.o)
 .debug_loc     0x0000318d       0xe0 c:/devkitPro/PAlib/lib\libpa9.a(PA_Error.o)
 .debug_loc     0x0000326d      0x455 c:/devkitPro/PAlib/lib\libpa9.a(PA_Gif.o)
 .debug_loc     0x000036c2      0x109 c:/devkitPro/PAlib/lib\libpa9.a(PA_Inits.o)
 .debug_loc     0x000037cb       0x3e c:/devkitPro/PAlib/lib\libpa9.a(PA_Interrupt.o)
 .debug_loc     0x00003809       0x83 c:/devkitPro/PAlib/lib\libpa9.a(PA_Keys.o)
 .debug_loc     0x0000388c       0xf8 c:/devkitPro/PAlib/lib\libpa9.a(PA_Math.o)
 .debug_loc     0x00003984      0x374 c:/devkitPro/PAlib/lib\libpa9.a(PA_NewBg.o)
 .debug_loc     0x00003cf8      0x1da c:/devkitPro/PAlib/lib\libpa9.a(PA_Palette.o)
 .debug_loc     0x00003ed2      0x42f c:/devkitPro/PAlib/lib\libpa9.a(PA_Reco.o)
 .debug_loc     0x00004301       0x87 c:/devkitPro/PAlib/lib\libpa9.a(PA_RTC.o)
 .debug_loc     0x00004388      0x18b c:/devkitPro/PAlib/lib\libpa9.a(PA_SpriteAnim.o)
 .debug_loc     0x00004513      0x4d2 c:/devkitPro/PAlib/lib\libpa9.a(PA_Sprite.o)
 .debug_loc     0x000049e5      0x169 c:/devkitPro/PAlib/lib\libpa9.a(PA_Stuff.o)
 .debug_loc     0x00004b4e      0xbeb c:/devkitPro/PAlib/lib\libpa9.a(PA_Text8bit.o)
 .debug_loc     0x00005739      0x609 c:/devkitPro/PAlib/lib\libpa9.a(PA_TextBits.o)
 .debug_loc     0x00005d42      0x889 c:/devkitPro/PAlib/lib\libpa9.a(PA_Text.o)
 .debug_loc     0x000065cb     0x10a2 c:/devkitPro/PAlib/lib\libpa9.a(dgif_lib.o)
 .debug_loc     0x0000766d      0x6c1 c:/devkitPro/PAlib/lib\libpa9.a(gifalloc.o)
 .debug_loc     0x00007d2e       0x50 c:/devkitPro/PAlib/lib\libpa9.a(gif_err.o)
 .debug_loc     0x00007d7e      0x578 c:/devkitPro/PAlib/lib\libpa9.a(PA_16c.o)
 .debug_loc     0x000082f6      0x39e c:/devkitPro/PAlib/lib\libpa9.a(PA_BgEasy.o)
 .debug_loc     0x00008694      0xcd7 c:/devkitPro/PAlib/lib\libpa9.a(PA_BgLargeMap.o)
 .debug_loc     0x0000936b      0x1b6 c:/devkitPro/PAlib/lib\libpa9.a(PA_BgRot.o)
 .debug_loc     0x00009521       0x7b c:/devkitPro/PAlib/lib\libpa9.a(PA_Fifo.o)
 .debug_loc     0x0000959c      0x3f0 c:/devkitPro/PAlib/lib\libpa9.a(PA_Keyboard.o)
 .debug_loc     0x0000998c      0x24a c:/devkitPro/PAlib/lib\libpa9.a(PA_PaletteEx.o)
 .debug_loc     0x00009bd6      0x4f4 c:/devkitPro/libnds/lib\libfat.a(libfat.o)
 .debug_loc     0x0000a0ca      0x32b c:/devkitPro/libnds/lib\libfat.a(partition.o)
 .debug_loc     0x0000a3f5      0xd0c c:/devkitPro/libnds/lib\libfat.a(cache.o)
 .debug_loc     0x0000b101     0x17e9 c:/devkitPro/libnds/lib\libfat.a(directory.o)
 .debug_loc     0x0000c8ea      0x984 c:/devkitPro/libnds/lib\libfat.a(fatdir.o)
 .debug_loc     0x0000d26e     0x150b c:/devkitPro/libnds/lib\libfat.a(fatfile.o)
 .debug_loc     0x0000e779      0x883 c:/devkitPro/libnds/lib\libfat.a(file_allocation_table.o)
 .debug_loc     0x0000effc       0xa7 c:/devkitPro/libnds/lib\libfat.a(filetime.o)
 .debug_loc     0x0000f0a3      0x375 c:/devkitPro/libnds/lib\libnds9.a(gurumeditation.o)
 .debug_loc     0x0000f418       0x51 c:/devkitPro/libnds/lib\libnds9.a(keys.o)
 .debug_loc     0x0000f469      0x177 c:/devkitPro/libnds/lib\libnds9.a(system.o)
 .debug_loc     0x0000f5e0       0x3e c:/devkitPro/libnds/lib\libnds9.a(touch.o)
 .debug_loc     0x0000f61e       0xb3 c:/devkitPro/libnds/lib\libnds9.a(video.o)
 .debug_loc     0x0000f6d1      0x29a c:/devkitPro/libnds/lib\libnds9.a(dldi.o)
 .debug_loc     0x0000f96b       0x32 c:/devkitPro/libnds/lib\libnds9.a(initSystem.o)
 .debug_loc     0x0000f99d      0xc6e c:/devkitPro/libnds/lib\libnds9.a(fifosystem.o)
 .debug_loc     0x0001060b      0x150 c:/devkitPro/libnds/lib\libnds9.a(interrupts.o)
 .debug_loc     0x0001075b       0x66 c:/devkitPro/libnds/lib\libnds9.a(libnds_exit.o)
 .debug_loc     0x000107c1      0xd62 c:/devkitPro/libnds/lib\libnds9.a(console.o)
 .debug_loc     0x00011523      0x29b c:/devkitPro/libnds/lib\libnds9.a(background.o)
 .debug_loc     0x000117be      0x50e c:/devkitPro/libnds/lib\libnds9.a(trig.o)
 .debug_loc     0x00011ccc      0x396 c:/devkitPro/libnds/lib\libdswifi9.a(sgIP_Hub.o)
 .debug_loc     0x00012062      0x5c5 c:/devkitPro/libnds/lib\libdswifi9.a(sgIP_memblock.o)
 .debug_loc     0x00012627     0x11ee c:/devkitPro/libnds/lib\libdswifi9.a(sgIP_sockets.o)
 .debug_loc     0x00013815     0x16e5 c:/devkitPro/libnds/lib\libdswifi9.a(wifi_arm9.o)
 .debug_loc     0x00014efa       0x7d c:/devkitPro/libnds/lib\libdswifi9.a(sgIP.o)
 .debug_loc     0x00014f77      0x797 c:/devkitPro/libnds/lib\libdswifi9.a(sgIP_ARP.o)
 .debug_loc     0x0001570e      0x585 c:/devkitPro/libnds/lib\libdswifi9.a(sgIP_DHCP.o)
 .debug_loc     0x00015c93      0xbbe c:/devkitPro/libnds/lib\libdswifi9.a(sgIP_DNS.o)
 .debug_loc     0x00016851      0x1f8 c:/devkitPro/libnds/lib\libdswifi9.a(sgIP_IP.o)
 .debug_loc     0x00016a49     0x16ff c:/devkitPro/libnds/lib\libdswifi9.a(sgIP_TCP.o)
 .debug_loc     0x00018148      0x920 c:/devkitPro/libnds/lib\libdswifi9.a(sgIP_UDP.o)
 .debug_loc     0x00018a68       0xe4 c:/devkitPro/libnds/lib\libdswifi9.a(sgIP_ICMP.o)

.debug_macinfo
 *(.debug_macinfo)

.debug_weaknames
 *(.debug_weaknames)

.debug_funcnames
 *(.debug_funcnames)

.debug_typenames
 *(.debug_typenames)

.debug_varnames
 *(.debug_varnames)

.stack          0x00080000        0x0 load address 0x02232870
                0x00080000                _stack = .
 *(.stack)
LOAD c:/devkitpro/devkitarm/bin/../lib/gcc/arm-eabi/4.4.3/../../../../arm-eabi/lib/thumb/ds_arm9_crt0.o
LOAD c:/devkitpro/devkitarm/bin/../lib/gcc/arm-eabi/4.4.3/thumb/crti.o
LOAD c:/devkitpro/devkitarm/bin/../lib/gcc/arm-eabi/4.4.3/thumb/crtbegin.o
LOAD BG2_bas_alg_Map.o
LOAD BG2_bas_alg_Pal.o
LOAD BG2_bas_alg_Tiles.o
LOAD BG2_bas_amazonia_Map.o
LOAD BG2_bas_amazonia_Pal.o
LOAD BG2_bas_amazonia_Tiles.o
LOAD BG2_bas_arg_Map.o
LOAD BG2_bas_arg_Pal.o
LOAD BG2_bas_arg_Tiles.o
LOAD BG2_bas_aus_Map.o
LOAD BG2_bas_aus_Pal.o
LOAD BG2_bas_aus_Tiles.o
LOAD BG2_bas_baixada_Map.o
LOAD BG2_bas_baixada_Pal.o
LOAD BG2_bas_baixada_Tiles.o
LOAD BG2_bas_beirario_Map.o
LOAD BG2_bas_beirario_Pal.o
LOAD BG2_bas_beirario_Tiles.o
LOAD BG2_bas_bel_Map.o
LOAD BG2_bas_bel_Pal.o
LOAD BG2_bas_bel_Tiles.o
LOAD BG2_bas_bih_Map.o
LOAD BG2_bas_bih_Pal.o
LOAD BG2_bas_bih_Tiles.o
LOAD BG2_bas_bra_Map.o
LOAD BG2_bas_bra_Pal.o
LOAD BG2_bas_bra_Tiles.o
LOAD BG2_bas_castelao_Map.o
LOAD BG2_bas_castelao_Pal.o
LOAD BG2_bas_castelao_Tiles.o
LOAD BG2_bas_chi_Map.o
LOAD BG2_bas_chi_Pal.o
LOAD BG2_bas_chi_Tiles.o
LOAD BG2_bas_civ_Map.o
LOAD BG2_bas_civ_Pal.o
LOAD BG2_bas_civ_Tiles.o
LOAD BG2_bas_cmr_Map.o
LOAD BG2_bas_cmr_Pal.o
LOAD BG2_bas_cmr_Tiles.o
LOAD BG2_bas_col_Map.o
LOAD BG2_bas_col_Pal.o
LOAD BG2_bas_col_Tiles.o
LOAD BG2_bas_crc_Map.o
LOAD BG2_bas_crc_Pal.o
LOAD BG2_bas_crc_Tiles.o
LOAD BG2_bas_cro_Map.o
LOAD BG2_bas_cro_Pal.o
LOAD BG2_bas_cro_Tiles.o
LOAD BG2_bas_dasdunas_Map.o
LOAD BG2_bas_dasdunas_Pal.o
LOAD BG2_bas_dasdunas_Tiles.o
LOAD BG2_bas_ecu_Map.o
LOAD BG2_bas_ecu_Pal.o
LOAD BG2_bas_ecu_Tiles.o
LOAD BG2_bas_eng_Map.o
LOAD BG2_bas_eng_Pal.o
LOAD BG2_bas_eng_Tiles.o
LOAD BG2_bas_esp_Map.o
LOAD BG2_bas_esp_Pal.o
LOAD BG2_bas_esp_Tiles.o
LOAD BG2_bas_fontenova_Map.o
LOAD BG2_bas_fontenova_Pal.o
LOAD BG2_bas_fontenova_Tiles.o
LOAD BG2_bas_fra_Map.o
LOAD BG2_bas_fra_Pal.o
LOAD BG2_bas_fra_Tiles.o
LOAD BG2_bas_ger_Map.o
LOAD BG2_bas_ger_Pal.o
LOAD BG2_bas_ger_Tiles.o
LOAD BG2_bas_gha_Map.o
LOAD BG2_bas_gha_Pal.o
LOAD BG2_bas_gha_Tiles.o
LOAD BG2_bas_gre_Map.o
LOAD BG2_bas_gre_Pal.o
LOAD BG2_bas_gre_Tiles.o
LOAD BG2_bas_hon_Map.o
LOAD BG2_bas_hon_Pal.o
LOAD BG2_bas_hon_Tiles.o
LOAD BG2_bas_irn_Map.o
LOAD BG2_bas_irn_Pal.o
LOAD BG2_bas_irn_Tiles.o
LOAD BG2_bas_ita_Map.o
LOAD BG2_bas_ita_Pal.o
LOAD BG2_bas_ita_Tiles.o
LOAD BG2_bas_jpn_Map.o
LOAD BG2_bas_jpn_Pal.o
LOAD BG2_bas_jpn_Tiles.o
LOAD BG2_bas_kor_Map.o
LOAD BG2_bas_kor_Pal.o
LOAD BG2_bas_kor_Tiles.o
LOAD BG2_bas_maracana_Map.o
LOAD BG2_bas_maracana_Pal.o
LOAD BG2_bas_maracana_Tiles.o
LOAD BG2_bas_mex_Map.o
LOAD BG2_bas_mex_Pal.o
LOAD BG2_bas_mex_Tiles.o
LOAD BG2_bas_mineirao_Map.o
LOAD BG2_bas_mineirao_Pal.o
LOAD BG2_bas_mineirao_Tiles.o
LOAD BG2_bas_nacional_Map.o
LOAD BG2_bas_nacional_Pal.o
LOAD BG2_bas_nacional_Tiles.o
LOAD BG2_bas_ned_Map.o
LOAD BG2_bas_ned_Pal.o
LOAD BG2_bas_ned_Tiles.o
LOAD BG2_bas_nga_Map.o
LOAD BG2_bas_nga_Pal.o
LOAD BG2_bas_nga_Tiles.o
LOAD BG2_bas_pantanal_Map.o
LOAD BG2_bas_pantanal_Pal.o
LOAD BG2_bas_pantanal_Tiles.o
LOAD BG2_bas_pernambuco_Map.o
LOAD BG2_bas_pernambuco_Pal.o
LOAD BG2_bas_pernambuco_Tiles.o
LOAD BG2_bas_por_Map.o
LOAD BG2_bas_por_Pal.o
LOAD BG2_bas_por_Tiles.o
LOAD BG2_bas_rus_Map.o
LOAD BG2_bas_rus_Pal.o
LOAD BG2_bas_rus_Tiles.o
LOAD BG2_bas_saopaulo_Map.o
LOAD BG2_bas_saopaulo_Pal.o
LOAD BG2_bas_saopaulo_Tiles.o
LOAD BG2_bas_selection_Map.o
LOAD BG2_bas_selection_Pal.o
LOAD BG2_bas_selection_Tiles.o
LOAD BG2_bas_sui_Map.o
LOAD BG2_bas_sui_Pal.o
LOAD BG2_bas_sui_Tiles.o
LOAD BG2_bas_uru_Map.o
LOAD BG2_bas_uru_Pal.o
LOAD BG2_bas_uru_Tiles.o
LOAD BG2_bas_usa_Map.o
LOAD BG2_bas_usa_Pal.o
LOAD BG2_bas_usa_Tiles.o
LOAD Groupe_Lettres_Pal.o
LOAD Groupe_Lettres_Sprite.o
LOAD Signe_Pal.o
LOAD Signe_Sprite.o
LOAD ballon_Pal.o
LOAD ballon_Sprite.o
LOAD flags_64_Pal.o
LOAD flags_64_Sprite.o
LOAD flags_Pal.o
LOAD flags_Sprite.o
LOAD icones_Pal.o
LOAD icones_Sprite.o
LOAD newfont_Map.o
LOAD newfont_Pal.o
LOAD newfont_Tiles.o
LOAD nombres_32_Pal.o
LOAD nombres_32_Sprite.o
LOAD nombres_Pal.o
LOAD nombres_Sprite.o
LOAD quitter_Pal.o
LOAD quitter_Sprite.o
LOAD soundbank_bin.o
LOAD BG3_bas_connexion_eng.o
LOAD BG3_bas_connexion_esp.o
LOAD BG3_bas_connexion_fra.o
LOAD BG3_bas_connexion_ger.o
LOAD BG3_bas_connexion_ita.o
LOAD BG3_bas_deux.o
LOAD BG3_bas_echec_eng.o
LOAD BG3_bas_echec_esp.o
LOAD BG3_bas_echec_fra.o
LOAD BG3_bas_echec_ger.o
LOAD BG3_bas_echec_ita.o
LOAD BG3_bas_equipes_eng.o
LOAD BG3_bas_equipes_esp.o
LOAD BG3_bas_equipes_fra.o
LOAD BG3_bas_equipes_ger.o
LOAD BG3_bas_equipes_ita.o
LOAD BG3_bas_groupes.o
LOAD BG3_bas_menu_eng.o
LOAD BG3_bas_menu_esp.o
LOAD BG3_bas_menu_fra.o
LOAD BG3_bas_menu_ger.o
LOAD BG3_bas_menu_ita.o
LOAD BG3_bas_penalty.o
LOAD BG3_bas_quatres.o
LOAD BG3_bas_reussi_eng.o
LOAD BG3_bas_reussi_esp.o
LOAD BG3_bas_reussi_fra.o
LOAD BG3_bas_reussi_ger.o
LOAD BG3_bas_reussi_ita.o
LOAD BG3_bas_score.o
LOAD BG3_bas_stades_eng.o
LOAD BG3_bas_stades_esp.o
LOAD BG3_bas_stades_fra.o
LOAD BG3_bas_stades_ger.o
LOAD BG3_bas_stades_ita.o
LOAD BG3_bas_wifi_eng.o
LOAD BG3_bas_wifi_esp.o
LOAD BG3_bas_wifi_fra.o
LOAD BG3_bas_wifi_ger.o
LOAD BG3_bas_wifi_ita.o
LOAD BG3_haut_demi_eng.o
LOAD BG3_haut_demi_esp.o
LOAD BG3_haut_demi_fra.o
LOAD BG3_haut_demi_ger.o
LOAD BG3_haut_demi_ita.o
LOAD BG3_haut_finale_eng.o
LOAD BG3_haut_finale_esp.o
LOAD BG3_haut_finale_fra.o
LOAD BG3_haut_finale_ger.o
LOAD BG3_haut_finale_ita.o
LOAD BG3_haut_groupes_eng.o
LOAD BG3_haut_groupes_esp.o
LOAD BG3_haut_groupes_fra.o
LOAD BG3_haut_groupes_ger.o
LOAD BG3_haut_groupes_ita.o
LOAD BG3_haut_huitieme_eng.o
LOAD BG3_haut_huitieme_esp.o
LOAD BG3_haut_huitieme_fra.o
LOAD BG3_haut_huitieme_ger.o
LOAD BG3_haut_huitieme_ita.o
LOAD BG3_haut_quart_eng.o
LOAD BG3_haut_quart_esp.o
LOAD BG3_haut_quart_fra.o
LOAD BG3_haut_quart_ger.o
LOAD BG3_haut_quart_ita.o
LOAD BG3_haut_titre.o
LOAD amazonia.o
LOAD baixada.o
LOAD beirario.o
LOAD black.o
LOAD castelao.o
LOAD credits.o
LOAD devkitpro.o
LOAD dunas.o
LOAD fontenova.o
LOAD intro1.o
LOAD intro2.o
LOAD intro3.o
LOAD licensed.o
LOAD maracana.o
LOAD mineirao.o
LOAD nacional.o
LOAD palib.o
LOAD pantanal.o
LOAD pernambuco.o
LOAD saopaulo.o
LOAD ky_geturl.o
LOAD main.o
LOAD BG2_bas_alg.o
LOAD BG2_bas_amazonia.o
LOAD BG2_bas_arg.o
LOAD BG2_bas_aus.o
LOAD BG2_bas_baixada.o
LOAD BG2_bas_beirario.o
LOAD BG2_bas_bel.o
LOAD BG2_bas_bih.o
LOAD BG2_bas_bra.o
LOAD BG2_bas_castelao.o
LOAD BG2_bas_chi.o
LOAD BG2_bas_civ.o
LOAD BG2_bas_cmr.o
LOAD BG2_bas_col.o
LOAD BG2_bas_crc.o
LOAD BG2_bas_cro.o
LOAD BG2_bas_dasdunas.o
LOAD BG2_bas_ecu.o
LOAD BG2_bas_eng.o
LOAD BG2_bas_esp.o
LOAD BG2_bas_fontenova.o
LOAD BG2_bas_fra.o
LOAD BG2_bas_ger.o
LOAD BG2_bas_gha.o
LOAD BG2_bas_gre.o
LOAD BG2_bas_hon.o
LOAD BG2_bas_irn.o
LOAD BG2_bas_ita.o
LOAD BG2_bas_jpn.o
LOAD BG2_bas_kor.o
LOAD BG2_bas_maracana.o
LOAD BG2_bas_mex.o
LOAD BG2_bas_mineirao.o
LOAD BG2_bas_nacional.o
LOAD BG2_bas_ned.o
LOAD BG2_bas_nga.o
LOAD BG2_bas_pantanal.o
LOAD BG2_bas_pernambuco.o
LOAD BG2_bas_por.o
LOAD BG2_bas_rus.o
LOAD BG2_bas_saopaulo.o
LOAD BG2_bas_selection.o
LOAD BG2_bas_sui.o
LOAD BG2_bas_uru.o
LOAD BG2_bas_usa.o
LOAD newfont.o
LOAD c:/devkitPro/PAlib/lib\libpa9.a
LOAD c:/devkitPro/libnds/lib\libfat.a
LOAD c:/devkitPro/libnds/lib\libnds9.a
LOAD c:/devkitPro/libnds/lib\libdswifi9.a
LOAD c:/devkitPro/libnds/lib\libmm9.a
START GROUP
LOAD c:/devkitpro/devkitarm/bin/../lib/gcc/arm-eabi/4.4.3/thumb\libgcc.a
LOAD c:/devkitpro/devkitarm/bin/../lib/gcc/arm-eabi/4.4.3/../../../../arm-eabi/lib/thumb\libg.a
LOAD c:/devkitpro/devkitarm/bin/../lib/gcc/arm-eabi/4.4.3/../../../../arm-eabi/lib/thumb\libc.a
LOAD c:/devkitpro/devkitarm/bin/../lib/gcc/arm-eabi/4.4.3/../../../../arm-eabi/lib/thumb\libsysbase.a
END GROUP
LOAD c:/devkitpro/devkitarm/bin/../lib/gcc/arm-eabi/4.4.3/thumb/crtend.o
LOAD c:/devkitpro/devkitarm/bin/../lib/gcc/arm-eabi/4.4.3/thumb/crtn.o
OUTPUT(build.elf elf32-littlearm)

.debug_ranges   0x00000000     0xa998 load address 0x02232870
 .debug_ranges  0x00000000       0x68 ky_geturl.o
 .debug_ranges  0x00000068     0x6d10 main.o
 .debug_ranges  0x00006d78       0x80 c:/devkitPro/PAlib/lib\libpa9.a(PA_BgTiles.o)
 .debug_ranges  0x00006df8       0x38 c:/devkitPro/PAlib/lib\libpa9.a(PA_Draw8bit.o)
 .debug_ranges  0x00006e30       0x48 c:/devkitPro/PAlib/lib\libpa9.a(PA_Draw.o)
 .debug_ranges  0x00006e78       0x38 c:/devkitPro/PAlib/lib\libpa9.a(PA_Gif.o)
 .debug_ranges  0x00006eb0      0x110 c:/devkitPro/PAlib/lib\libpa9.a(PA_Inits.o)
 .debug_ranges  0x00006fc0      0x100 c:/devkitPro/PAlib/lib\libpa9.a(PA_Math.o)
 .debug_ranges  0x000070c0      0x2a0 c:/devkitPro/PAlib/lib\libpa9.a(PA_NewBg.o)
 .debug_ranges  0x00007360       0x40 c:/devkitPro/PAlib/lib\libpa9.a(PA_Palette.o)
 .debug_ranges  0x000073a0       0xb8 c:/devkitPro/PAlib/lib\libpa9.a(PA_Reco.o)
 .debug_ranges  0x00007458       0xc0 c:/devkitPro/PAlib/lib\libpa9.a(PA_SpriteAnim.o)
 .debug_ranges  0x00007518       0x68 c:/devkitPro/PAlib/lib\libpa9.a(PA_Sprite.o)
 .debug_ranges  0x00007580      0xa78 c:/devkitPro/PAlib/lib\libpa9.a(PA_Text8bit.o)
 .debug_ranges  0x00007ff8       0x48 c:/devkitPro/PAlib/lib\libpa9.a(PA_TextBits.o)
 .debug_ranges  0x00008040       0x50 c:/devkitPro/PAlib/lib\libpa9.a(PA_Text.o)
 .debug_ranges  0x00008090      0x100 c:/devkitPro/PAlib/lib\libpa9.a(dgif_lib.o)
 .debug_ranges  0x00008190       0x18 c:/devkitPro/PAlib/lib\libpa9.a(gifalloc.o)
 .debug_ranges  0x000081a8      0x110 c:/devkitPro/PAlib/lib\libpa9.a(PA_16c.o)
 .debug_ranges  0x000082b8      0x108 c:/devkitPro/PAlib/lib\libpa9.a(PA_BgEasy.o)
 .debug_ranges  0x000083c0      0x850 c:/devkitPro/PAlib/lib\libpa9.a(PA_BgLargeMap.o)
 .debug_ranges  0x00008c10      0x160 c:/devkitPro/PAlib/lib\libpa9.a(PA_Keyboard.o)
 .debug_ranges  0x00008d70       0x78 c:/devkitPro/PAlib/lib\libpa9.a(PA_PaletteEx.o)
 .debug_ranges  0x00008de8       0x48 c:/devkitPro/libnds/lib\libfat.a(libfat.o)
 .debug_ranges  0x00008e30       0xf0 c:/devkitPro/libnds/lib\libfat.a(partition.o)
 .debug_ranges  0x00008f20       0x88 c:/devkitPro/libnds/lib\libfat.a(cache.o)
 .debug_ranges  0x00008fa8      0x2f8 c:/devkitPro/libnds/lib\libfat.a(directory.o)
 .debug_ranges  0x000092a0       0xa0 c:/devkitPro/libnds/lib\libfat.a(fatdir.o)
 .debug_ranges  0x00009340      0x2a0 c:/devkitPro/libnds/lib\libfat.a(fatfile.o)
 .debug_ranges  0x000095e0       0x38 c:/devkitPro/libnds/lib\libfat.a(file_allocation_table.o)
 .debug_ranges  0x00009618       0xb0 c:/devkitPro/libnds/lib\libnds9.a(gurumeditation.o)
 .debug_ranges  0x000096c8       0x18 c:/devkitPro/libnds/lib\libnds9.a(touch.o)
 .debug_ranges  0x000096e0       0x30 c:/devkitPro/libnds/lib\libnds9.a(dldi.o)
 .debug_ranges  0x00009710      0x410 c:/devkitPro/libnds/lib\libnds9.a(fifosystem.o)
 .debug_ranges  0x00009b20       0x30 c:/devkitPro/libnds/lib\libnds9.a(interrupts.o)
 .debug_ranges  0x00009b50      0x220 c:/devkitPro/libnds/lib\libnds9.a(console.o)
 .debug_ranges  0x00009d70       0x78 c:/devkitPro/libnds/lib\libnds9.a(background.o)
 .debug_ranges  0x00009de8       0xa0 c:/devkitPro/libnds/lib\libnds9.a(trig.o)
 .debug_ranges  0x00009e88       0x18 c:/devkitPro/libnds/lib\libdswifi9.a(sgIP_memblock.o)
 .debug_ranges  0x00009ea0      0x340 c:/devkitPro/libnds/lib\libdswifi9.a(sgIP_sockets.o)
 .debug_ranges  0x0000a1e0      0x3f0 c:/devkitPro/libnds/lib\libdswifi9.a(wifi_arm9.o)
 .debug_ranges  0x0000a5d0      0x130 c:/devkitPro/libnds/lib\libdswifi9.a(sgIP_DNS.o)
 .debug_ranges  0x0000a700      0x1b0 c:/devkitPro/libnds/lib\libdswifi9.a(sgIP_TCP.o)
 .debug_ranges  0x0000a8b0       0xe8 c:/devkitPro/libnds/lib\libdswifi9.a(sgIP_UDP.o)
